ARM Linker, 4.1 [Build 462] 

==============================================================================

Section Cross References

    BOOTARM.o(Init) refers to main.o(.text) for C_Main
    BOOTARM_DRAM.o(Init) refers to da_init.o(.text) for DaLoopEntry
    nand_drv_COMMON_v3_1.o(.text) refers to aeabi_sdiv_cr4.o(x$udivmod) for __aeabi_uidivmod
    nand_drv_COMMON_v3_1.o(.text) refers to logging.o(.text) for DBG_MSG
    nand_drv_COMMON_v3_1.o(.text) refers to BLOADER.o(.data) for g_pNandInfo
    nand_drv_COMMON_v3_1.o(.text) refers to nand_drv_COMMON_v3_1.o(.data) for .data
    nand_drv_COMMON_v3_1.o(.text) refers to nand_drv_COMMON_v3_1.o(.bss) for .bss
    nand_drv_COMMON_v3_1.o(.text) refers to nand_drv_COMMON_v3_1.o(.constdata) for .constdata
    nand_drv_COMMON_v3_1.o(.text) refers to xgpt.o(.text) for udelay
    nand_drv_COMMON_v3_1.o(.text) refers to hw_config.o(.data) for g_nanddie_pages
    nand_drv_COMMON_v3_1.o(.text) refers to main_nand.o(.data) for ftl_img
    nand_drv_COMMON_v3_1.o(.text) refers to memset.o(.text) for memset
    nand_drv_COMMON_v3_1.o(.text) refers to memcpy.o(.text) for memcpy
    nand_drv_COMMON_v3_1.o(.text) refers to nand_util_func.o(.data) for bad_block_remark_done
    nand_drv_COMMON_v3_1.o(.text) refers to nand_drv_COMMON_v3_1.o(.text) for NFI_Reset
    nand_drv_COMMON_v3_1.o(.text) refers to nand_drv_COMMON_v3_1.o(.data) for .data
    nand_drv_COMMON_v3_1.o(.text) refers to nand_drv_COMMON_v3_1.o(.text) for NFI_Reset
    nand_drv_COMMON_v3_1.o(.text) refers to logging.o(.text) for DBG_MSG
    nand_drv_COMMON_v3_1.o(.text) refers to nand_drv_COMMON_v3_1.o(.text) for NFI_Reset
    nand_drv_COMMON_v3_1.o(.constdata) refers to nand_drv_COMMON_v3_1.o(.text) for NAND_COMMON_ReadID_V3
    nand_drv_SAMSUNG.o(.constdata) refers to nand_drv_SAMSUNG.o(.text) for NAND_SAMSUNG_OTP_Enter
    nand_drv_ST.o(.text) refers to BLOADER.o(.data) for g_pNandInfo
    nand_drv_ST.o(.constdata) refers to nand_drv_COMMON_v3_1.o(.text) for NAND_COMMON_ReadID_V3
    nand_drv_ST.o(.constdata) refers to nand_drv_ST.o(.text) for NAND_ST_WholeChipUnlock_V3
    nand_drv_ST.o(.constdata) refers to nand_drv_COMMON_v3_1.o(.text) for NAND_COMMON_ReadID_V3
    nand_drv_ST.o(.constdata) refers to nand_drv_ST.o(.text) for NAND_ST_WholeChipUnlock_V3
    nand_drv_superAND.o(.constdata) refers to nand_drv_COMMON_v3_1.o(.text) for NAND_COMMON_ReadID_V3
    nand_drv_superAND.o(.constdata) refers to nand_drv_superAND.o(.text) for NAND_superAND_Reset
    nand_dev_tbl.o(NAND_FLASH_TABLE) refers to nand_drv_SAMSUNG.o(.constdata) for g_NAND_SAMSUNG_512_CMD_SET
    nand_dev_tbl.o(NAND_FLASH_TABLE) refers to nand_drv_COMMON_v3_1.o(.constdata) for g_NAND_COMMON_CB_FUNC_SET
    nand_dev_tbl.o(NAND_FLASH_TABLE) refers to nand_drv_SAMSUNG.o(.constdata) for SAMSUNG_OTP
    nand_dev_tbl.o(NAND_FLASH_TABLE) refers to nand_drv_SAMSUNG.o(.constdata) for g_NAND_SAMSUNG_OTP_CB_FUNC_SET
    nand_dev_tbl.o(NAND_FLASH_TABLE) refers to nand_drv_SAMSUNG.o(.constdata) for g_NAND_SAMSUNG_2048_CMD_SET
    nand_dev_tbl.o(NAND_FLASH_TABLE) refers to nand_dev_tbl.o(.data) for g_MICRON_MLC_FEATURE
    nand_dev_tbl.o(NAND_FLASH_TABLE) refers to nand_dev_tbl.o(.data) for g_MICRON_MLC_16NM_FEATURE
    nand_dev_tbl.o(NAND_FLASH_TABLE) refers to nand_dev_tbl.o(.data) for g_SANDISK_MLC_FEATURE
    nand_dev_tbl.o(NAND_FLASH_TABLE) refers to nand_dev_tbl.o(.data) for g_SANDISK_19NM_MLC_FEATURE
    nand_dev_tbl.o(NAND_FLASH_TABLE) refers to nand_dev_tbl.o(.data) for g_SANDISK_MLCTLC_FEATURE
    nand_dev_tbl.o(NAND_FLASH_TABLE) refers to nand_drv_KINGSTON.o(.constdata) for g_NAND_KINGSTON_2048_CMD_SET
    nand_dev_tbl.o(NAND_FLASH_TABLE) refers to nand_drv_TOSHIBA.o(.constdata) for g_NAND_TOSHIBA_512_CMD_SET
    nand_dev_tbl.o(NAND_FLASH_TABLE) refers to nand_drv_TOSHIBA.o(.constdata) for g_NAND_TOSHIBA_2048_CMD_SET
    nand_dev_tbl.o(NAND_FLASH_TABLE) refers to nand_dev_tbl.o(.data) for g_TOSHIBA_MLC_FEATURE
    nand_dev_tbl.o(NAND_FLASH_TABLE) refers to nand_dev_tbl.o(.data) for g_TOSHIBA_15NM_MLC_FEATURE
    nand_dev_tbl.o(NAND_FLASH_TABLE) refers to nand_drv_HYNIX.o(.constdata) for g_NAND_HYNIX_512_CMD_SET
    nand_dev_tbl.o(NAND_FLASH_TABLE) refers to nand_drv_HYNIX.o(.constdata) for g_NAND_HYNIX_2048_CMD_SET
    nand_dev_tbl.o(NAND_FLASH_TABLE) refers to nand_dev_tbl.o(.data) for g_HYNIX_MLC_FEATURE
    nand_dev_tbl.o(NAND_FLASH_TABLE) refers to nand_dev_tbl.o(.data) for g_HYNIX_MLCTLC_FEATURE
    nand_dev_tbl.o(NAND_FLASH_TABLE) refers to nand_dev_tbl.o(.data) for g_HYNIX_16NM_MLC_FEATURE
    nand_dev_tbl.o(NAND_FLASH_TABLE) refers to nand_drv_ST.o(.constdata) for g_NAND_ST_512_CMD_SET
    nand_dev_tbl.o(NAND_FLASH_TABLE) refers to nand_drv_ST.o(.constdata) for g_NAND_ST_CB_FUNC_SET
    nand_dev_tbl.o(NAND_FLASH_TABLE) refers to nand_drv_ST.o(.constdata) for g_NAND_ST_2048_CMD_SET
    nand_dev_tbl.o(NAND_FLASH_TABLE) refers to nand_drv_superAND.o(.constdata) for g_NAND_superAND_2048_CMD_SET
    nand_dev_tbl.o(NAND_FLASH_TABLE) refers to nand_drv_superAND.o(.constdata) for g_NAND_superAND_CB_FUNC_SET
    nand_dev_tbl.o(NAND_FLASH_TABLE) refers to nand_drv_superAND.o(.constdata) for g_NAND_superAND_512_CMD_SET
    da_init.o(.text) refers to memset.o(.text) for memset
    da_init.o(.text) refers to memcpy.o(.text) for memcpy
    da_init.o(.text) refers to logging.o(.text) for InitLoggingFacility
    da_init.o(.text) refers to BLOADER.o(.text) for InitTimer
    da_init.o(.text) refers to BLOADER.o(SYMBOLINIT) for InitGlobalVar
    da_init.o(.text) refers to platform.o(.text) for SAL_Init
    da_init.o(.text) refers to hw_config.o(.text) for DetectBasebandChip
    da_init.o(.text) refers to da_init.o(.ARM.__AT_0x80100000) for .ARM.__AT_0x80100000
    da_init.o(.text) refers to BLOADER.o(.bss) for g_Argument
    da_init.o(.text) refers to hw_config.o(.bss) for g_HW_DevCfg
    da_init.o(.text) refers to BLOADER.o(.data) for g_bbchip_secure_version
    da_init.o(.text) refers to nand_util_func.o(.data) for g_nand_bmt_num
    da_init.o(.text) refers to rx_buffer.o(.data) for g_RX_RING_BUFFER_LENGTH
    da_init.o(.text) refers to rx_buffer.o(.data) for g_rx_buffer_baseaddr
    da_init.o(.text) refers to logging.o(.text) for DBG_MSG
    da_init.o(.text) refers to nand_util_func.o(.text) for NUTL_NFIv3_Init
    da_init.o(.text) refers to nand_drv_COMMON_v3_1.o(.text) for NAND_COMMON_ReadID_V3
    da_init.o(.text) refers to hw_config.o(.bss) for g_HW_DevCfg
    hw_config.o(.text) refers to logging.o(.text) for DBG_MSG
    hw_config.o(.text) refers to rt_memcpy.o(.text) for __aeabi_memcpy
    hw_config.o(.text) refers to EMI.o(.text) for SetupEMI_DRAM
    hw_config.o(.text) refers to memcmp.o(.text) for memcmp
    hw_config.o(.text) refers to memcpy.o(.text) for memcpy
    hw_config.o(.text) refers to lludiv5.o(.text) for __aeabi_uldivmod
    hw_config.o(.text) refers to hw_config.o(.bss) for .bss
    hw_config.o(.text) refers to BLOADER.o(.bss) for g_Argument
    hw_config.o(.text) refers to hw_config.o(.data) for .data
    hw_config.o(.text) refers to BLOADER.o(.data) for g_pNandInfo
    hw_config.o(.text) refers to BLOADER.o(.bss) for g_NandFlashDev
    hw_config.o(.text) refers to nand_drv_COMMON_v3_1.o(.data) for reset_fdm_and_ecc
    hw_config.o(.text) refers to nand_util_func.o(.text) for NUTL_NFI_SetPageFormat
    hw_config.o(.text) refers to nand_drv_COMMON_v3_1.o(.text) for HYNIX_RR_TABLE_READ
    hw_config.o(.text) refers to bmt.o(.text) for NUTL_INIT_PARM
    hw_config.o(.text) refers to sdmmc.o(.text) for SDMMC_Init
    hw_config.o(.text) refers to cache.o(.text) for EnableCache
    hw_config.o(.text) refers to rid.o(.text) for GetRandomId
    hw_config.o(.text) refers to hw_config.o(.constdata) for .constdata
    hw_config.o(.text) refers to nand_util_func.o(.data) for g_nand_bmt_num
    hw_config.o(.text) refers to hw_config.o(.bss) for .bss
    hw_config.o(.text) refers to rt_memcpy.o(.text) for __aeabi_memcpy
    hw_config.o(.text) refers to hw_config.o(.text) for SetupEMI
    hw_config.o(.text) refers to hw_config.o(.text) for DetectRAMSize
    hw_config.o(.text) refers to hw_config.o(.bss) for .bss
    hw_config.o(.constdata) refers to platform.o(.text) for SAL_ConfigPLL
    hw_config.o(.constdata) refers to hw_config.o(.constdata) for g_EMI_Cfg_MT8127
    hw_config.o(.constdata) refers to hw_config.o(.constdata) for g_RGU_Cfg_MT8127
    hw_config.o(.constdata) refers to hw_config.o(.constdata) for g_NFI_Cfg_MT8127
    hw_config.o(.constdata) refers to hw_config.o(.constdata) for g_CLK_Cfg_MT8127
    main.o(.text) refers to locale.o(.text) for setlocale
    main.o(.text) refers to da_init.o(.text) for DAInit
    logging.o(.text) refers to UART.o(.text) for uart_putc
    logging.o(.text) refers to dl_usbacm_adap.o(.text) for COM_Is_USB_Download_Mode
    logging.o(.text) refers to sal_pll.o(.text) for SAL_Query_UART_Clock
    logging.o(.text) refers to assert.o(.text) for _assert
    logging.o(.text) refers to strlen.o(.text) for strlen
    logging.o(.text) refers to aeabi_sdiv_cr4.o(x$udivmod) for __aeabi_uidivmod
    logging.o(.text) refers to logging.o(.data) for .data
    logging.o(.text) refers to logging.o(.constdata) for .constdata
    logging.o(.text) refers to logging.o(.constdata) for .constdata
    xgpt.o(.text) refers to aeabi_sdiv_cr4.o(x$udivmod) for __aeabi_uidivmod
    xgpt.o(.text) refers to lludiv5.o(.text) for __aeabi_uldivmod
    xgpt.o(.text) refers to xgpt.o(.data) for .data
    xgpt.o(.text) refers to aeabi_sdiv_cr4.o(x$udivmod) for __aeabi_uidivmod
    main_nand.o(.text) refers to aeabi_sdiv_cr4.o(x$udivmod) for __aeabi_uidivmod
    main_nand.o(.text) refers to lludiv5.o(.text) for __aeabi_uldivmod
    main_nand.o(.text) refers to rt_memcpy.o(.text) for __aeabi_memcpy
    main_nand.o(.text) refers to hw_config.o(.text) for mem_set
    main_nand.o(.text) refers to sb_encode.o(.text) for sb_is_usbdl4enduser
    main_nand.o(.text) refers to logging.o(.text) for DBG_MSG
    main_nand.o(.text) refers to main_nand_internal.o(.text) for NFB_Image_ReturnErrorStatus
    main_nand.o(.text) refers to security.o(.text) for IsSecRORange
    main_nand.o(.text) refers to sec_secro.o(.text) for is_sw_sec_boot_dl_images_allowed
    main_nand.o(.text) refers to UART.o(.text) for COM_ReturnNAckStatus
    main_nand.o(.text) refers to BLOADER.o(.data) for g_pNandInfo
    main_nand.o(.text) refers to BLOADER.o(.bss) for g_COM_Driver
    main_nand.o(.text) refers to main_nand.o(.bss) for .bss
    main_nand.o(.text) refers to main_nand.o(.data) for .data
    main_nand.o(.text) refers to nand_util_func.o(.text) for NUTL_SetPageBuf8
    main_nand.o(.text) refers to bmt.o(.text) for NUTL_Logic_PageRead
    main_nand.o(.text) refers to memset.o(.text) for memset
    main_nand.o(.text) refers to memcpy.o(.text) for memcpy
    main_nand.o(.text) refers to main_nand.o(.constdata) for .constdata
    main_nand.o(.text) refers to platform.o(.text) for kal_get_crc_u8
    main_nand.o(.text) refers to memcmp.o(.text) for memcmp
    main_nand.o(.text) refers to main_nand.o(CUSTOMER_ZIDATA) for CUSTOMER_ZIDATA
    main_nand.o(.text) refers to aeabi_sdiv_cr4.o(x$sdivmod) for __aeabi_idivmod
    main_nand.o(.text) refers to bmt.o(.data) for g_nand_bmt_combo
    main_nand.o(.text) refers to nand_util_func.o(.data) for g_nand_bmt_num
    main_nand.o(.text) refers to nand_drv_COMMON_v3_1.o(.data) for _u4TLCBlkEnd
    main_nand.o(.text) refers to BLOADER.o(.data) for g_retry_count
    main_nand.o(.text) refers to h1_free.o(.text) for free
    main_nand.o(.text) refers to strlen.o(.text) for strlen
    main_nand.o(.text) refers to kal_release.o(.text) for kal_neon_mem_set
    main_nand.o(.text) refers to BLOADER.o(.text) for ObtainNumPackets
    main_nand.o(.text) refers to xgpt.o(.text) for gpt4_get_current_tick
    main_nand.o(.text) refers to main_nand.o(.bss) for .bss
    main_nand.o(.text) refers to main_nand.o(.bss) for .bss
    main_nand.o(.text) refers to rt_memcpy.o(.text) for __aeabi_memcpy
    main_nand.o(.text) refers to hw_config.o(.text) for mem_set
    main_nand.o(.text) refers to main_nand.o(.text) for SSF_Build_CRC_TBL
    main_nand.o(.text) refers to main_nand.o(.text) for SSF_Update_CRC
    main_nand.o(.text) refers to memcmp.o(.text) for memcmp
    main_nand.o(.text) refers to bmt.o(.text) for load_exist_part_tab
    main_nand.o(.text) refers to main_nand.o(CUSTOMER_ZIDATA) for CUSTOMER_ZIDATA
    main_nand.o(.text) refers to main_nand.o(.text) for NMAIN_ReadPageCmd
    main_nand.o(.text) refers to BLOADER.o(.data) for g_pNandInfo
    main_nand.o(.text) refers to BLOADER.o(.bss) for g_COM_Driver
    main_nand.o(.text) refers to BLOADER.o(.bss) for g_COM_Driver
    nand_util_func.o(.text) refers to aeabi_sdiv_cr4.o(x$sdivmod) for __aeabi_idivmod
    nand_util_func.o(.text) refers to logging.o(.text) for DBG_MSG
    nand_util_func.o(.text) refers to hw_config.o(.bss) for g_HW_DevCfg
    nand_util_func.o(.text) refers to nand_util_func.o(.bss) for .bss
    nand_util_func.o(.text) refers to BLOADER.o(.data) for g_pNandInfo
    nand_util_func.o(.text) refers to nand_drv_COMMON_v3_1.o(.data) for fgRandomEn
    nand_util_func.o(.text) refers to lludiv5.o(.text) for __aeabi_uldivmod
    nand_util_func.o(.text) refers to aeabi_sdiv_cr4.o(x$udivmod) for __aeabi_uidivmod
    nand_util_func.o(.text) refers to bmt.o(.text) for is_bmt_pool_block
    nand_util_func.o(.text) refers to nand_drv_COMMON_v3_1.o(.text) for NAND_COMMON_PageProgramBad_V3
    nand_util_func.o(.text) refers to nand_util_func.o(.constdata) for .constdata
    nand_util_func.o(.text) refers to bmt.o(.bss) for g_nand_chip
    nand_util_func.o(.text) refers to hw_config.o(.text) for mem_set
    nand_util_func.o(.text) refers to memcmp.o(.text) for memcmp
    nand_util_func.o(.text) refers to nand_util_func.o(.data) for .data
    nand_util_func.o(.text) refers to kal_release.o(.text) for kal_neon_mem_set
    nand_util_func.o(.text) refers to main_nand.o(.bss) for g_NMAIN_TmpPage
    nand_util_func.o(.text) refers to main_nand.o(.data) for ftl_img
    nand_util_func.o(.text) refers to bmt.o(.data) for nand_oob
    nand_util_func.o(.text) refers to nand_util_func.o(.text) for NFI_GPIO_SET_FIELD
    nand_util_func.o(.text) refers to nand_drv_COMMON_v3_1.o(.text) for NAND_COMMON_ReadID_V3
    nand_util_func.o(.text) refers to nand_util_func.o(.text) for NUTL_NFIv3_ReInit_BL
    nand_util_func.o(.text) refers to BLOADER.o(.data) for g_pNandInfo
    nand_util_func.o(.text) refers to BLOADER.o(.data) for g_pNandInfo
    nand_util_func.o(.text) refers to aeabi_sdiv_cr4.o(x$udivmod) for __aeabi_uidivmod
    nand_util_func.o(.text) refers to BLOADER.o(.data) for g_pNandInfo
    nand_util_func.o(.text) refers to aeabi_sdiv_cr4.o(x$udivmod) for __aeabi_uidivmod
    nand_util_func.o(.text) refers to nand_util_func.o(.text) for NUTL_PageCopy_Ex
    nand_util_func.o(.text) refers to BLOADER.o(.data) for g_pNandInfo
    nand_util_func.o(.text) refers to aeabi_sdiv_cr4.o(x$udivmod) for __aeabi_uidivmod
    nand_util_func.o(.text) refers to nand_util_func.o(.text) for NUTL_BlockErase
    nand_util_func.o(.text) refers to BLOADER.o(.data) for g_pNandInfo
    nand_util_func.o(.text) refers to aeabi_sdiv_cr4.o(x$udivmod) for __aeabi_uidivmod
    nand_util_func.o(.text) refers to nand_util_func.o(.text) for NUTL_FindGoodBlock
    nand_util_func.o(.text) refers to BLOADER.o(.data) for g_pNandInfo
    nand_util_func.o(.text) refers to aeabi_sdiv_cr4.o(x$udivmod) for __aeabi_uidivmod
    nand_util_func.o(.text) refers to nand_util_func.o(.text) for NUTL_FindGoodBlock
    nand_util_func.o(.text) refers to BLOADER.o(.data) for g_pNandInfo
    nand_util_func.o(.text) refers to aeabi_sdiv_cr4.o(x$udivmod) for __aeabi_uidivmod
    nand_util_func.o(.text) refers to nand_util_func.o(.text) for NUTL_FindGoodBlock
    nand_util_func.o(.text) refers to BLOADER.o(.data) for g_pNandInfo
    nand_util_func.o(.text) refers to main_nand.o(.data) for g_NMAIN_lastBlock
    BLOADER.o(.text) refers to logging.o(.text) for DBG_MSG
    BLOADER.o(.text) refers to UART.o(.text) for COM_Delay
    BLOADER.o(.text) refers to dl_usbacm_adap.o(.text) for COM_Is_USB_Download_Mode
    BLOADER.o(.text) refers to dl_usb_drv.o(.text) for USB_Set_DP_Pull_High
    BLOADER.o(.text) refers to platform.o(.text) for SAL_RTCReleasePower
    BLOADER.o(.text) refers to xgpt.o(.text) for gpt4_busy_wait_ms
    BLOADER.o(.text) refers to lludiv5.o(.text) for __aeabi_uldivmod
    BLOADER.o(.text) refers to sdmmc.o(.text) for SDMMC_Read
    BLOADER.o(.text) refers to aeabi_sdiv_cr4.o(x$udivmod) for __aeabi_uidivmod
    BLOADER.o(.text) refers to main_nand.o(.text) for NMAIN_BmtRemark
    BLOADER.o(.text) refers to security.o(.text) for NFB_IsValidDownloadRange
    BLOADER.o(.text) refers to nand_util_func.o(.text) for NUTL_CheckRange
    BLOADER.o(.text) refers to sb_encode.o(MT6223_SB) for GetPacket
    BLOADER.o(.text) refers to kal_release.o(.text) for kal_neon_mem_cpy
    BLOADER.o(.text) refers to BLOADER.o(.bss) for .bss
    BLOADER.o(.text) refers to BLOADER.o(.data) for .data
    BLOADER.o(.text) refers to hw_config.o(.bss) for g_HW_DetectionResult
    BLOADER.o(.text) refers to BLOADER.o(.constdata) for .constdata
    BLOADER.o(.text) refers to bmt.o(.data) for raw_part_block_count
    BLOADER.o(.text) refers to main_nand.o(.bss) for g_NMAIN_TmpPage
    BLOADER.o(.text) refers to bmt.o(.text) for NUTL_Logic_BlockErase
    BLOADER.o(.text) refers to sdmmc_handler.o(.text) for SDMMC_Read_DL_info
    BLOADER.o(.text) refers to assert.o(.text) for _assert
    BLOADER.o(.text) refers to sb_encode.o(.text) for sb_init
    BLOADER.o(.text) refers to BLOADER.o(SYMBOLINIT) for InitFreeExtRAM
    BLOADER.o(.text) refers to hw_config.o(.text) for DetectExtDRAM
    BLOADER.o(.text) refers to rx_buffer.o(.data) for g_RX_RING_BUFFER_LENGTH
    BLOADER.o(.text) refers to rx_buffer.o(.data) for g_rx_buffer_baseaddr
    BLOADER.o(.text) refers to blkdev.o(.text) for blkdev_read
    BLOADER.o(.text) refers to rt_neon_memclr_w.o(.text) for __aeabi_memclr4
    BLOADER.o(.text) refers to memset.o(.text) for memset
    BLOADER.o(.text) refers to sdmmc_handler.o(.bss) for g_Image_Checksum
    BLOADER.o(.text) refers to dl_usb.o(.data) for gUsbSetupInfo
    BLOADER.o(.text) refers to sec_flashtool_cfg.o(.text) for SecureUsbDL_CheckBypass
    BLOADER.o(.text) refers to flash_otp.o(.text) for OTP_LockCMD
    BLOADER.o(.text) refers to test_main.o(.text) for Memory_Test_CMD
    BLOADER.o(.text) refers to sec_secro.o(.text) for is_sw_sec_boot_format_allowed
    BLOADER.o(.text) refers to get_fw_ver.o(.text) for GetFwVer
    BLOADER.o(.text) refers to download_bloader.o(.text) for Download_BL
    BLOADER.o(.text) refers to logging.o(.text) for DBG_MSG
    BLOADER.o(.text) refers to UART.o(.text) for COM_Delay
    BLOADER.o(.text) refers to BLOADER.o(.text) for FinishCmd
    BLOADER.o(.text) refers to BLOADER.o(.bss) for .bss
    BLOADER.o(.text) refers to hw_config.o(.bss) for g_HW_DevCfg
    BLOADER.o(.text) refers to BLOADER.o(.data) for .data
    BLOADER.o(.text) refers to nand_util_func.o(.data) for g_nand_bmt_num
    BLOADER.o(.text) refers to BLOADER.o(.text) for AdjustBufferSize
    BLOADER.o(.text) refers to hw_config.o(.bss) for g_HW_DetectionResult
    BLOADER.o(.text) refers to aeabi_sdiv_cr4.o(x$udivmod) for __aeabi_uidivmod
    BLOADER.o(.text) refers to sb_encode.o(MT6223_SB) for GetPacketEx
    BLOADER.o(.text) refers to sb_encode.o(.text) for sb_is_stop
    BLOADER.o(.text) refers to BLOADER.o(.bss) for .bss
    BLOADER.o(.text) refers to security.o(.text) for GetPCInfoState
    BLOADER.o(.text) refers to UART.o(.text) for COM_ReturnNAckStatus
    BLOADER.o(.text) refers to BLOADER.o(.bss) for .bss
    BLOADER.o(.text) refers to sb_encode.o(.text) for sb_init
    BLOADER.o(.text) refers to BLOADER.o(.text) for SecureUsbDL_ParseInfo
    BLOADER.o(.text) refers to BLOADER.o(.text) for SecureUsbDL_ReportInfo
    BLOADER.o(.text) refers to security.o(.text) for SecurityWrite
    BLOADER.o(.text) refers to security.o(.text) for CheckSecUsbdlImageInfo
    BLOADER.o(.text) refers to security.o(.text) for ReportSecUsbdlInfo
    BLOADER.o(.text) refers to security.o(.text) for UpdateSecUsbdlImageOffset
    BLOADER.o(.text) refers to security.o(.text) for SecurityInfoUpdate
    BLOADER.o(.text) refers to security.o(.text) for GetSecurityVersion
    BLOADER.o(.text) refers to memcpy.o(.text) for memcpy
    BLOADER.o(.text) refers to memset.o(.text) for memset
    BLOADER.o(.text) refers to logging.o(.text) for InitLoggingFacility
    BLOADER.o(.text) refers to xgpt.o(.text) for timer_init
    BLOADER.o(.text) refers to BLOADER.o(SYMBOLINIT) for InitGlobalVar
    BLOADER.o(.text) refers to BLOADER.o(.text) for InitCOM
    BLOADER.o(.text) refers to hw_config.o(.text) for DetectBasebandChip
    BLOADER.o(.text) refers to BLOADER.o(.text) for InitSync
    BLOADER.o(.text) refers to platform.o(.text) for SAL_Init
    BLOADER.o(.text) refers to BLOADER.o(.text) for InitBufferSize
    BLOADER.o(.text) refers to BLOADER.o(.bss) for .bss
    BLOADER.o(.text) refers to hw_config.o(.bss) for g_HW_DetectionResult
    BLOADER.o(SYMBOLINIT) refers to logging.o(.text) for DBG_MSG
    BLOADER.o(SYMBOLINIT) refers to BLOADER.o(.data) for .data
    BLOADER.o(SYMBOLINIT) refers to dl_usb.o(.data) for gUsbSetupInfo
    BLOADER.o(SYMBOLINIT) refers to nand_dev_tbl.o(NAND_FLASH_TABLE) for g_NandFlashDevTbl_Internal
    BLOADER.o(SYMBOLINIT) refers to rx_buffer.o(.data) for g_rx_buffer_baseaddr
    BLOADER.o(SYMBOLINIT) refers to rx_buffer.o(.data) for g_RX_RING_BUFFER_LENGTH
    BLOADER.o(SYMBOLINIT) refers to BLOADER.o(.bss) for .bss
    EMI.o(.text) refers to logging.o(.text) for DBG_MSG
    EMI.o(.text) refers to xgpt.o(.text) for gpt4_busy_wait_us
    EMI.o(.text) refers to EMI.o(.data) for .data
    EMI.o(.text) refers to pmic_wrap_init.o(.text) for pwrap_wacs2
    EMI.o(.text) refers to hw_config.o(.bss) for g_HW_DevCfg
    EMI.o(.text) refers to platform.o(.data) for g_PmicType
    EMI.o(.text) refers to EMI.o(.constdata) for .constdata
    EMI.o(.text) refers to aeabi_sdiv_cr4.o(x$udivmod) for __aeabi_uidivmod
    EMI.o(.text) refers to sal_pll.o(.text) for mt_mempll_init
    EMI.o(.text) refers to dramc_calib.o(.text) for dramc_calib
    EMI.o(.text) refers to hw_config.o(.text) for DetectRAMSize
    EMI.o(.text) refers to test_ext_sram.o(.text) for RAM_Complex_Test
    EMI.o(.text) refers to BLOADER.o(.bss) for g_COM_Driver
    EMI.o(.text) refers to aeabi_sdiv_cr4.o(x$sdivmod) for __aeabi_idivmod
    EMI.o(.text) refers to logging.o(.text) for DBG_MSG
    EMI.o(.text) refers to logging.o(.text) for DBG_MSG
    EMI.o(.text) refers to EMI.o(.constdata) for .constdata
    EMI.o(.text) refers to logging.o(.text) for DBG_MSG
    EMI.o(.text) refers to EMI.o(.constdata) for .constdata
    EMI.o(.text) refers to logging.o(.text) for DBG_MSG
    EMI.o(.text) refers to EMI.o(.constdata) for .constdata
    EMI.o(.text) refers to logging.o(.text) for DBG_MSG
    EMI.o(.text) refers to EMI.o(.text) for rgu_release_rg_dramc_conf_iso
    EMI.o(.text) refers to EMI.o(.text) for rgu_release_rg_dramc_iso
    EMI.o(.text) refers to EMI.o(.text) for rgu_release_rg_dramc_sref
    EMI.o(.text) refers to EMI.o(.text) for rgu_is_dram_slf
    EMI.o(.text) refers to logging.o(.text) for DBG_MSG
    EMI.o(.text) refers to EMI.o(.data) for .data
    EMI.o(.text) refers to logging.o(.text) for DBG_MSG
    EMI.o(.text) refers to EMI.o(.text) for rgu_is_reserve_ddr_enabled
    EMI.o(.text) refers to EMI.o(.text) for rgu_is_reserve_ddr_mode_success
    EMI.o(.text) refers to EMI.o(.text) for rgu_is_dram_slf
    EMI.o(.text) refers to logging.o(.text) for DBG_MSG
    EMI.o(.text) refers to EMI.o(.text) for release_dram
    EMI.o(.text) refers to EMI.o(.data) for .data
    EMI.o(.text) refers to EMI.o(.constdata) for .constdata
    cache.o(.text) refers to cache.o(.text) for MTK_DisableCache
    download_bloader.o(.text) refers to UART.o(.text) for COM_ReturnNAckStatus
    download_bloader.o(.text) refers to nand_download_internal.o(.text) for NAND_Download_BL_GetBootRegionStartAddr
    download_bloader.o(.text) refers to sdmmc_download_internal.o(.text) for SDMMC_Download_BL_EraseHeaderBlock_Internal
    download_bloader.o(.text) refers to logging.o(.text) for DBG_MSG
    download_bloader.o(.text) refers to sb_encode.o(MT6223_SB) for GetPacket
    download_bloader.o(.text) refers to memset.o(.text) for memset
    download_bloader.o(.text) refers to hw_config.o(.text) for mem_overlap_copy
    download_bloader.o(.text) refers to security.o(.text) for SetSoftwareOTP
    download_bloader.o(.text) refers to sb_encode.o(.text) for sb_reset_counter
    download_bloader.o(.text) refers to rt_neon_memclr_w.o(.text) for __aeabi_memclr4
    download_bloader.o(.text) refers to hw_config.o(.bss) for g_HW_DetectionResult
    download_bloader.o(.text) refers to BLOADER.o(.bss) for g_COM_Driver
    download_bloader.o(.text) refers to sej_hk.o(.constdata) for g_AC_BOOTROM_SWOTP
    download_bloader.o(.text) refers to main_nand.o(.text) for NMAIN_Write_DL_info
    download_bloader.o(.text) refers to sdmmc_handler.o(.text) for SDMMC_Write_DL_info
    download_bloader.o(.text) refers to aeabi_sdiv_cr4.o(x$udivmod) for __aeabi_uidivmod
    download_bloader.o(.text) refers to nand_drv_COMMON_v3_1.o(.data) for bl_region_ing
    download_bloader.o(.text) refers to BLOADER.o(.data) for g_pNandInfo
    download_bloader.o(.text) refers to bmt.o(.bss) for g_nand_chip
    download_bloader.o(.text) refers to hw_config.o(.data) for double_nfb
    download_bloader.o(.text) refers to nand_download_internal.o(.text) for NAND_Download_BL_CheckHeaderBlock_Internal
    download_bloader.o(.text) refers to sdmmc_download_internal.o(.text) for SDMMC_Download_BL_CheckHeaderBlock_Internal
    download_bloader.o(.text) refers to BLOADER.o(.bss) for g_COM_Driver
    download_bloader.o(.text) refers to nand_download_internal.o(.text) for NAND_Download_BL_CalNextBeginAddr_Internal
    flash_otp.o(.text) refers to nand_util_func.o(.text) for NUTL_OTP_CheckDevice
    flash_otp.o(.text) refers to hw_config.o(.text) for mem_set
    flash_otp.o(.text) refers to aeabi_sdiv_cr4.o(x$udivmod) for __aeabi_uidivmod
    flash_otp.o(.text) refers to BLOADER.o(.bss) for g_COM_Driver
    flash_otp.o(.text) refers to BLOADER.o(.data) for g_pNandInfo
    flash_otp.o(.text) refers to main_nand.o(.bss) for g_NMAIN_TmpPage
    kal_release.o(.text) refers to xgpt.o(.text) for gpt4_get_current_tick
    kal_release.o(.text) refers to main_nand.o(.data) for g_ds_neon_memset_bytes
    platform.o(.text) refers to logging.o(.text) for DBG_MSG
    platform.o(.text) refers to pmic_wrap_init.o(.text) for pwrap_read
    platform.o(.text) refers to rtc.o(.text) for MT8127_set_RTC_Base_Reg
    platform.o(.text) refers to xgpt.o(.text) for udelay
    platform.o(.text) refers to sal_pll.o(.text) for SAL_PLL_Setup
    platform.o(.text) refers to UART.o(.text) for UART1_ReInit
    platform.o(.text) refers to rt_neon_memclr_w.o(.text) for __aeabi_memclr4
    platform.o(.text) refers to platform.o(.data) for .data
    platform.o(.text) refers to platform.o(.constdata) for .constdata
    platform.o(.text) refers to BLOADER.o(.data) for g_hw_reset_configure
    platform.o(.text) refers to BLOADER.o(.bss) for g_Argument
    platform.o(.text) refers to logging.o(.text) for DBG_MSG
    rid.o(.text) refers to security.o(.text) for Hash
    rid.o(.text) refers to memcpy.o(.text) for memcpy
    assert.o(.text) refers to logging.o(.text) for DBG_MSG
    assert.o(.text) refers to aeabi_sdiv_cr4.o(x$sdivmod) for __aeabi_idivmod
    assert.o(.text) refers to BLOADER.o(.text) for FinishCmd
    assert.o(.text) refers to BLOADER.o(.bss) for g_COM_Driver
    sal_pll.o(.text) refers to xgpt.o(.text) for gpt4_busy_wait_us
    sal_pll.o(.text) refers to dl_usbacm_adap.o(.text) for COM_Is_USB_Download_Mode
    sal_pll.o(.text) refers to logging.o(.text) for DBG_MSG
    sal_pll.o(.text) refers to sal_pll.o(.data) for .data
    sal_pll.o(.text) refers to sal_pll.o(.constdata) for .constdata
    sal_pll.o(.text) refers to xgpt.o(.text) for mdelay
    blkdev.o(.text) refers to lludiv5.o(.text) for __aeabi_uldivmod
    blkdev.o(.text) refers to memcpy.o(.text) for memcpy
    blkdev.o(.text) refers to blkdev.o(.data) for .data
    blkdev.o(.text) refers to lludiv5.o(.text) for __aeabi_uldivmod
    blkdev.o(.text) refers to memcpy.o(.text) for memcpy
    sdmmc.o(.text) refers to mmc_core.o(.text) for mmc_get_card
    sdmmc.o(.text) refers to logging.o(.text) for DBG_MSG
    sdmmc.o(.text) refers to memset.o(.text) for memset
    sdmmc.o(.text) refers to sdmmc.o(.data) for .data
    sdmmc.o(.text) refers to sdmmc.o(.bss) for .bss
    sdmmc.o(.text) refers to blkdev.o(.text) for blkdev_register
    sdmmc.o(.text) refers to memcpy.o(.text) for memcpy
    sdmmc.o(.text) refers to aeabi_sdiv_cr4.o(x$udivmod) for __aeabi_uidivmod
    sdmmc.o(.text) refers to BLOADER.o(.bss) for g_COM_Driver
    sdmmc.o(.text) refers to sdmmc.o(.constdata) for .constdata
    sdmmc.o(.text) refers to sdmmc.o(.data) for .data
    sdmmc.o(.text) refers to sdmmc.o(.data) for .data
    sdmmc.o(.text) refers to memset.o(.text) for memset
    sdmmc.o(.text) refers to mmc_core.o(.text) for mmc_block_read
    sdmmc.o(.text) refers to logging.o(.text) for DBG_MSG
    sdmmc.o(.text) refers to memcmp.o(.text) for memcmp
    sdmmc.o(.text) refers to sdmmc.o(.data) for .data
    sdmmc.o(.text) refers to sdmmc.o(.bss) for .bss
    sdmmc.o(.text) refers to logging.o(.text) for DBG_MSG
    sdmmc.o(.text) refers to sdmmc.o(.text) for sdmmc_switch_part
    sdmmc.o(.text) refers to mmc_core.o(.text) for mmc_block_erase
    sdmmc.o(.text) refers to sdmmc.o(.text) for verifyErase
    sdmmc.o(.text) refers to sdmmc.o(.constdata) for .constdata
    sdmmc.o(.text) refers to sdmmc.o(.data) for .data
    sdmmc.o(.text) refers to mmc_core.o(.text) for mmc_get_card
    sdmmc.o(.text) refers to sdmmc.o(.data) for .data
    sdmmc.o(.text) refers to mmc_core.o(.text) for mmc_get_card
    sdmmc.o(.text) refers to sdmmc.o(.text) for SDMMC_SetEXTCSD
    sdmmc.o(.text) refers to sdmmc.o(.data) for .data
    sdmmc.o(.text) refers to mmc_core.o(.text) for mmc_get_card
    sdmmc.o(.text) refers to sdmmc.o(.text) for SDMMC_SetEXTCSD
    sdmmc.o(.text) refers to lludiv5.o(.text) for __aeabi_uldivmod
    sdmmc.o(.text) refers to sdmmc.o(.data) for .data
    sdmmc_handler.o(.text) refers to rt_neon_memclr_w.o(.text) for __aeabi_memclr4
    sdmmc_handler.o(.text) refers to security.o(.text) for IsSecRORange
    sdmmc_handler.o(.text) refers to sec_secro.o(.text) for is_sw_sec_boot_dl_images_allowed
    sdmmc_handler.o(.text) refers to sdmmc.o(.text) for SDMMC_GetAllPartitionSize
    sdmmc_handler.o(.text) refers to xgpt.o(.text) for get_timer
    sdmmc_handler.o(.text) refers to UART.o(.text) for COM_ReturnNAckStatus
    sdmmc_handler.o(.text) refers to logging.o(.text) for GetLoggingLevel
    sdmmc_handler.o(.text) refers to blkdev.o(.text) for blkdev_write
    sdmmc_handler.o(.text) refers to memcpy.o(.text) for memcpy
    sdmmc_handler.o(.text) refers to memset.o(.text) for memset
    sdmmc_handler.o(.text) refers to sdmmc_handler.o(.data) for .data
    sdmmc_handler.o(.text) refers to BLOADER.o(.bss) for g_COM_Driver
    sdmmc_handler.o(.text) refers to sdmmc_handler.o(.bss) for .bss
    sdmmc_handler.o(.text) refers to lludiv5.o(.text) for __aeabi_uldivmod
    sdmmc_handler.o(.text) refers to platform.o(.text) for kal_get_crc_u8
    sdmmc_handler.o(.text) refers to hw_config.o(.text) for mem_overlap_copy
    sdmmc_handler.o(.text) refers to sdmmc_handler.o(.constdata) for .constdata
    sdmmc_handler.o(.text) refers to BLOADER.o(.data) for g_bIsSkipDLInfo
    sdmmc_handler.o(.text) refers to sdmmc.o(.data) for g_sdmmc_user_size
    sdmmc_handler.o(.text) refers to main_nand.o(.data) for g_ds_neon_memcpy_bytes
    sdmmc_handler.o(.text) refers to aeabi_sdiv_cr4.o(x$udivmod) for __aeabi_uidivmod
    sdmmc_handler.o(.text) refers to bmt.o(.text) for SDMMC_PTB_Update
    sdmmc_handler.o(.text) refers to main_nand_internal.o(.text) for NFB_Image_ReturnErrorStatus
    sdmmc_handler.o(.text) refers to efi.o(.text) for read_gpt
    sdmmc_handler.o(.text) refers to memcmp.o(.text) for memcmp
    bmt.o(.text) refers to aeabi_sdiv_cr4.o(x$udivmod) for __aeabi_uidivmod
    bmt.o(.text) refers to nand_util_func.o(.text) for NUTL_PageRead
    bmt.o(.text) refers to logging.o(.text) for DBG_MSG
    bmt.o(.text) refers to lludiv5.o(.text) for __aeabi_uldivmod
    bmt.o(.text) refers to memset.o(.text) for memset
    bmt.o(.text) refers to memcpy.o(.text) for memcpy
    bmt.o(.text) refers to memcmp.o(.text) for memcmp
    bmt.o(.text) refers to bmt.o(.bss) for .bss
    bmt.o(.text) refers to bmt.o(.data) for .data
    bmt.o(.text) refers to main_nand.o(.data) for ftl_img
    bmt.o(.text) refers to BLOADER.o(.data) for g_pNandInfo
    bmt.o(.text) refers to bmt.o(.constdata) for .constdata
    bmt.o(.text) refers to main_nand.o(.text) for NMAIN_Write_DL_info
    bmt.o(.text) refers to hw_config.o(.text) for mem_set
    bmt.o(.text) refers to nand_util_func.o(.data) for g_nand_bmt_num
    bmt.o(.text) refers to nand_drv_COMMON_v3_1.o(.data) for bl_region_ing
    bmt.o(.text) refers to BLOADER.o(.bss) for g_SLC_percent
    bmt.o(.text) refers to blkdev.o(.text) for blkdev_get
    bmt.o(.text) refers to sdmmc_handler.o(.text) for SDMMC_WriteDataCallback_Part
    bmt.o(.text) refers to hw_config.o(.data) for g_maker_code
    bmt.o(.text) refers to nand_drv_COMMON_v3_1.o(.data) for _u4TLC2SLCRatio
    bmt.o(.text) refers to sdmmc.o(.data) for g_sdmmc_user_size
    bmt.o(.text) refers to sdmmc.o(.text) for SDMMC_Read_Part
    bmt.o(.text) refers to strcmp.o(.text) for strcmp
    bmt.o(.text) refers to bmt.o(.bss) for .bss
    bmt.o(.text) refers to lludiv5.o(.text) for __aeabi_uldivmod
    bmt.o(.text) refers to bmt.o(.bss) for .bss
    bmt.o(.text) refers to memset.o(.text) for memset
    bmt.o(.text) refers to bmt.o(.text) for nand_block_bad_bmt
    bmt.o(.text) refers to aeabi_sdiv_cr4.o(x$udivmod) for __aeabi_uidivmod
    bmt.o(.text) refers to memcpy.o(.text) for memcpy
    bmt.o(.text) refers to logging.o(.text) for DBG_MSG
    bmt.o(.text) refers to bmt.o(.data) for .data
    bmt.o(.text) refers to bmt.o(.bss) for .bss
    bmt.o(.text) refers to BLOADER.o(.data) for g_pNandInfo
    main_nand_internal.o(.text) refers to aeabi_sdiv_cr4.o(x$udivmod) for __aeabi_uidivmod
    main_nand_internal.o(.text) refers to nand_util_func.o(.text) for NUTL_SetPageBuf8
    main_nand_internal.o(.text) refers to BLOADER.o(.data) for g_pNandInfo
    main_nand_internal.o(.text) refers to main_nand.o(.bss) for g_NMAIN_DL
    main_nand_internal.o(.text) refers to hw_config.o(.bss) for g_HW_DevCfg
    main_nand_internal.o(.text) refers to hw_config.o(.text) for mem_set
    main_nand_internal.o(.text) refers to nand_download_internal.o(.text) for NAND_Download_BL_CheckHeaderBlock_Internal
    main_nand_internal.o(.text) refers to aeabi_sdiv_cr4.o(x$udivmod) for __aeabi_uidivmod
    main_nand_internal.o(.text) refers to nand_util_func.o(.text) for NUTL_SetPageBuf32
    main_nand_internal.o(.text) refers to main_nand.o(.text) for NFB_FOTA_Super_Block_Header_Gen
    main_nand_internal.o(.text) refers to nand_drv_COMMON_v3_1.o(.data) for bl_region_ing
    main_nand_internal.o(.text) refers to BLOADER.o(.data) for g_pNandInfo
    main_nand_internal.o(.text) refers to bmt.o(.bss) for g_nand_chip
    main_nand_internal.o(.text) refers to main_nand.o(.bss) for g_NMAIN_DL
    main_nand_internal.o(.text) refers to main_nand.o(.data) for g_NMAIN_ENFB_MappingTable
    main_nand_internal.o(.text) refers to security.o(.text) for GetOnFlashRomInfo
    main_nand_internal.o(.text) refers to rt_noneon_memcpy_w_ca9.o(.text) for __aeabi_memcpy4
    main_nand_internal.o(.text) refers to main_nand_internal.o(.constdata) for .constdata
    main_nand_internal.o(.text) refers to memcmp.o(.text) for memcmp
    main_nand_internal.o(.text) refers to UART.o(.text) for COM_Delay
    main_nand_internal.o(.text) refers to BLOADER.o(.text) for FinishCmd
    main_nand_internal.o(.text) refers to BLOADER.o(.bss) for g_COM_Driver
    main_nand_internal.o(.text) refers to nand_util_func.o(.text) for NUTL_FindGoodBlock
    main_nand_internal.o(.text) refers to main_nand.o(.text) for fue_calculate_chksum
    main_nand_internal.o(.text) refers to memcmp.o(.text) for memcmp
    main_nand_internal.o(.text) refers to main_nand.o(.bss) for g_NMAIN_TmpPage
    main_nand_internal.o(.text) refers to security.o(.text) for SetSoftwareOTP
    main_nand_internal.o(.text) refers to sb_encode.o(MT6223_SB) for GetPacket
    main_nand_internal.o(.text) refers to main_nand.o(.bss) for g_NMAIN_DL
    main_nand_internal.o(.text) refers to aeabi_sdiv_cr4.o(x$udivmod) for __aeabi_uidivmod
    main_nand_internal.o(.text) refers to main_nand.o(.bss) for g_NMAIN_ImageList
    main_nand_internal.o(.text) refers to BLOADER.o(.data) for g_pNandInfo
    main_nand_internal.o(.text) refers to aeabi_sdiv_cr4.o(x$udivmod) for __aeabi_uidivmod
    main_nand_internal.o(.text) refers to rt_noneon_memcpy_w_ca9.o(.text) for __aeabi_memcpy4
    main_nand_internal.o(.text) refers to nand_util_func.o(.text) for NUTL_FindGoodBlock
    main_nand_internal.o(.text) refers to hw_config.o(.text) for mem_set
    main_nand_internal.o(.text) refers to BLOADER.o(.data) for g_pNandInfo
    main_nand_internal.o(.text) refers to main_nand.o(.bss) for g_NMAIN_DL
    main_nand_internal.o(.text) refers to main_nand_internal.o(.constdata) for .constdata
    main_nand_internal.o(.text) refers to aeabi_sdiv_cr4.o(x$udivmod) for __aeabi_uidivmod
    main_nand_internal.o(.text) refers to nand_util_func.o(.text) for NUTL_PageCopy_Ex
    main_nand_internal.o(.text) refers to BLOADER.o(.data) for g_bIsSecureMAUI
    main_nand_internal.o(.text) refers to BLOADER.o(.data) for g_pNandInfo
    main_nand_internal.o(.text) refers to aeabi_sdiv_cr4.o(x$udivmod) for __aeabi_uidivmod
    main_nand_internal.o(.text) refers to nand_util_func.o(.text) for NUTL_FindGoodBlock
    main_nand_internal.o(.text) refers to BLOADER.o(.data) for g_pNandInfo
    main_nand_internal.o(.text) refers to main_nand.o(.bss) for g_NMAIN_ImageList
    main_nand_internal.o(.text) refers to aeabi_sdiv_cr4.o(x$udivmod) for __aeabi_uidivmod
    main_nand_internal.o(.text) refers to nand_util_func.o(.text) for NUTL_FindGoodBlock
    main_nand_internal.o(.text) refers to BLOADER.o(.data) for g_pNandInfo
    main_nand_internal.o(.text) refers to main_nand.o(.bss) for g_NMAIN_ImageList
    main_nand_internal.o(.text) refers to lludiv5.o(.text) for __aeabi_uldivmod
    main_nand_internal.o(.text) refers to nand_util_func.o(.text) for NUTL_BlockErase
    main_nand_internal.o(.text) refers to BLOADER.o(.data) for g_pNandInfo
    test_main.o(.text) refers to aeabi_sdiv_cr4.o(x$udivmod) for __aeabi_uidivmod
    test_main.o(.text) refers to BLOADER.o(.text) for ObtainData
    test_main.o(.text) refers to lludiv5.o(.text) for __aeabi_uldivmod
    test_main.o(.text) refers to nand_util_func.o(.text) for NUTL_BlockErase
    test_main.o(.text) refers to memcmp.o(.text) for memcmp
    test_main.o(.text) refers to logging.o(.text) for DBG_MSG
    test_main.o(.text) refers to sdmmc.o(.text) for SDMMC_Write
    test_main.o(.text) refers to BLOADER.o(.data) for PACKET_LENGTH
    test_main.o(.text) refers to main_nand.o(.bss) for g_NMAIN_TmpPage
    test_main.o(.text) refers to BLOADER.o(.bss) for g_COM_Driver
    test_main.o(.text) refers to test_main.o(.bss) for .bss
    test_main.o(.text) refers to test_bus.o(.text) for TEST_DataBus
    test_main.o(.text) refers to test_ext_sram.o(.text) for RAM_Pattern_Test_8Bit
    test_main.o(.text) refers to UART.o(.text) for COM_ReturnNAckStatus
    test_main.o(.text) refers to sdmmc_handler.o(.text) for SDMMC_CheckRange
    test_main.o(.text) refers to hw_config.o(.bss) for g_HW_DevCfg
    dl_usb.o(.text) refers to hw_config.o(.text) for mem_set
    dl_usb.o(.text) refers to dl_usb_resource.o(.text) for USB_Software_Speed_Init
    dl_usb.o(.text) refers to dl_usb_drv.o(.text) for USB_Reset_FIFO
    dl_usb.o(.text) refers to assert.o(.text) for _assert
    dl_usb.o(.text) refers to dl_usb_mode.o(.text) for USB_Change_Interface_Sequence
    dl_usb.o(.text) refers to dl_usb.o(.bss) for .bss
    dl_usb.o(.text) refers to dl_usbacm_drv.o(.text) for USB_Init_Acm_Status
    dl_usb.o(.text) refers to dl_usb.o(.bss) for .bss
    dl_usb_drv.o(.text) refers to dl_usb_debug_tool.o(.text) for USB_Dbg_Trace
    dl_usb_drv.o(.text) refers to assert.o(.text) for _assert
    dl_usb_drv.o(.text) refers to dl_usb_drv.o(.data) for .data
    dl_usb_drv.o(.text) refers to dl_usb_drv.o(.bss) for .bss
    dl_usb_drv.o(.text) refers to dl_usb_drv.o(.bss) for .bss
    dl_usb_drv.o(.text) refers to dl_usb_drv.o(.bss) for .bss
    dl_usb_drv.o(.text) refers to dl_usb_drv.o(.text) for USB_HISR
    dl_usb_drv.o(.text) refers to dl_usb_drv.o(.bss) for .bss
    dl_usbacm_adap.o(.text) refers to dl_usb_drv.o(.text) for USB_Set_DP_Pull_High
    dl_usbacm_adap.o(.text) refers to dl_usb_debug_tool.o(.text) for USB_Dbg_Trace
    dl_usbacm_adap.o(.text) refers to dl_usb_mode.o(.text) for USB_Config_Type
    dl_usbacm_adap.o(.text) refers to logging.o(.text) for DBG_MSG
    dl_usbacm_adap.o(.text) refers to dl_usb_resource.o(.text) for USB_Set_BulkIn_Ep
    dl_usbacm_adap.o(.text) refers to assert.o(.text) for _assert
    dl_usbacm_adap.o(.text) refers to dl_usbacm_adap.o(.bss) for .bss
    dl_usbacm_adap.o(.text) refers to dl_usbacm_drv.o(.data) for USB2UARTPort
    dl_usbacm_adap.o(.text) refers to dl_usb.o(.bss) for gUsbDevice
    dl_usbacm_adap.o(.text) refers to dl_usbacm_adap.o(.data) for .data
    dl_usbacm_adap.o(.text) refers to dl_usbacm_drv.o(.bss) for g_UsbACM
    dl_usbacm_adap.o(.text) refers to dl_usbacm_drv.o(.data) for gUSBAcm_IsInEPComplete
    dl_usbacm_adap.o(.text) refers to usbphy.o(.text) for mt6582_usb_phy_poweron
    dl_usbacm_adap.o(.text) refers to xgpt.o(.text) for gpt4_busy_wait_ms
    dl_usbacm_adap.o(.text) refers to dl_usb_drv.o(.text) for USB_Polling_Recv_Data
    dl_usbacm_adap.o(.text) refers to dl_usbacm_drv.o(.bss) for g_UsbACM
    dl_usbacm_adap.o(.text) refers to dl_usb_debug_tool.o(.text) for USB_Dbg_Trace
    dl_usbacm_adap.o(.text) refers to dl_usb_drv.o(.text) for USB_DMA_Setup
    dl_usbacm_adap.o(.text) refers to dl_usb_drv.o(.text) for USBDMA_HISR
    dl_usbacm_adap.o(.text) refers to dl_usbacm_drv.o(.bss) for g_UsbACM
    dl_usbacm_adap.o(.text) refers to dl_usbacm_adap.o(.bss) for .bss
    dl_usbacm_adap.o(.text) refers to dl_usb_debug_tool.o(.text) for USB_Dbg_Trace
    dl_usbacm_adap.o(.text) refers to dl_usb_drv.o(.text) for USB_DMA_Setup
    dl_usbacm_adap.o(.text) refers to dl_usb_drv.o(.text) for USBDMA_HISR
    dl_usbacm_adap.o(.text) refers to dl_usbacm_drv.o(.bss) for g_UsbACM
    dl_usbacm_adap.o(.text) refers to dl_usbacm_adap.o(.bss) for .bss
    UART.o(.text) refers to aeabi_sdiv_cr4.o(x$udivmod) for __aeabi_uidivmod
    UART.o(.text) refers to memset.o(.text) for memset
    UART.o(.text) refers to llshl.o(.text) for __aeabi_llsl
    UART.o(.text) refers to llushr.o(.text) for __aeabi_llsr
    UART.o(.text) refers to sal_pll.o(.text) for SAL_Query_UART_Clock
    UART.o(.text) refers to dl_usbacm_adap.o(.text) for COM_Is_USB_Download_Mode
    UART.o(.text) refers to UART.o(.bss) for .bss
    UART.o(.text) refers to UART.o(.data) for .data
    UART.o(.text) refers to hw_config.o(.bss) for g_HW_DevCfg
    UART.o(.text) refers to BLOADER.o(.data) for g_baudrate
    UART.o(.text) refers to BLOADER.o(.bss) for g_COM_Driver
    UART.o(.text) refers to UART.o(.text) for uart_putc
    get_fw_ver.o(.text) refers to get_fw_ver.o(.constdata) for .constdata
    sb_encode.o(.text) refers to hw_config.o(.text) for mem_set
    sb_encode.o(.text) refers to memset.o(.text) for memset
    sb_encode.o(.text) refers to security.o(.text) for SB_EngineProcess
    sb_encode.o(.text) refers to nand_util_func.o(.text) for NUTL_SetPageBuf32
    sb_encode.o(.text) refers to memcmp.o(.text) for memcmp
    sb_encode.o(.text) refers to UART.o(.text) for COM_ReturnNAckStatus
    sb_encode.o(.text) refers to hw_config.o(.bss) for g_HW_DevCfg
    sb_encode.o(.text) refers to sb_encode.o(.data) for .data
    sb_encode.o(.text) refers to security.o(.bss) for g_LoadInfo
    sb_encode.o(.text) refers to BLOADER.o(.data) for g_bbchip_bl_version
    sb_encode.o(.text) refers to security.o(.bss) for g_USBDL4EndUser
    sb_encode.o(.text) refers to main_nand.o(.bss) for g_NMAIN_TmpPage
    sb_encode.o(.text) refers to BLOADER.o(.bss) for g_COM_Driver
    sb_encode.o(MT6223_SB) refers to sej_hk.o(.text) for SEJ_V3_Terminate
    sb_encode.o(MT6223_SB) refers to UART.o(.text) for COM_Get_HW_Packet_Size
    sb_encode.o(MT6223_SB) refers to logging.o(.text) for DBG_MSG
    sb_encode.o(MT6223_SB) refers to dummy.o(.text) for GPT_SetMark2
    sb_encode.o(MT6223_SB) refers to security.o(.bss) for g_LoadInfo
    sb_encode.o(MT6223_SB) refers to sb_encode.o(.data) for .data
    sb_encode.o(MT6223_SB) refers to security.o(.bss) for g_USBDL4EndUser
    sb_encode.o(MT6223_SB) refers to BLOADER.o(.bss) for g_COM_Driver
    sb_encode.o(MT6223_SB) refers to BLOADER.o(.data) for g_max_queue_data_in_rx_buffer
    security.o(.text) refers to nand_util_func.o(.text) for NUTL_ReadBlocks
    security.o(.text) refers to nand_util_func.o(.text) for NUTL_EraseBlocks
    security.o(.text) refers to nand_util_func.o(.text) for NUTL_WriteBlocks
    security.o(.text) refers to UART.o(.text) for COM_ReturnNAckStatus
    security.o(.text) refers to sej_hk.o(.text) for SEJ_V3_Init
    security.o(.text) refers to nand_util_func.o(.text) for NUTL_SetPageBuf8
    security.o(.text) refers to rx_buffer.o(.data) for g_rx_buffer_baseaddr
    security.o(.text) refers to BLOADER.o(.data) for g_pNandInfo
    security.o(.text) refers to main_nand.o(.bss) for g_NMAIN_FOTA_ImageList
    security.o(.text) refers to BLOADER.o(.bss) for g_COM_Driver
    security.o(.text) refers to security.o(.bss) for .bss
    security.o(.text) refers to hw_config.o(.bss) for g_HW_DetectionResult
    security.o(.text) refers to sec_util.o(.text) for mcmp
    security.o(.text) refers to hw_config.o(.text) for mem_set
    security.o(.text) refers to lludiv5.o(.text) for __aeabi_uldivmod
    security.o(.text) refers to logging.o(.text) for DBG_MSG
    security.o(.text) refers to sec_dev.o(.text) for sec_read_dev
    security.o(.text) refers to seccfg.o(.text) for sec_cfg_find
    security.o(.text) refers to rt_neon_memclr_w.o(.text) for __aeabi_memclr4
    security.o(.text) refers to security.o(.data) for .data
    security.o(.text) refers to sec_hdr.o(.text) for set_shdr_ver
    security.o(.text) refers to seccfg_ver.o(.text) for set_seccfg_ver
    security.o(.text) refers to sec_dl.o(.text) for sec_img_info_check
    security.o(.text) refers to sec_info.o(.text) for sec_img_info_add
    security.o(.text) refers to memcmp.o(.text) for memcmp
    security.o(.text) refers to seccfg_crypto.o(.text) for get_seccfg_cipher_len
    security.o(.text) refers to assert.o(.text) for _assert
    security.o(.text) refers to sec_key.o(.text) for sec_decode_key
    security.o(.text) refers to main_nand_internal.o(.text) for NFB_FindImageList
    security.o(.text) refers to sec_secro.o(.text) for search_secro
    security.o(.text) refers to sdmmc.o(.text) for SDMMC_GetCurrentPart
    security.o(.text) refers to sec_dev.o(.data) for g_CurDevType
    security.o(.text) refers to security.o(.constdata) for .constdata
    security.o(.text) refers to sha1_sw.o(.text) for CHE_sha1_Init
    security.o(.text) refers to md5.o(.text) for MD5Init
    sec_secro.o(.text) refers to sec_dev.o(.text) for sec_read_dev
    sec_secro.o(.text) refers to sec_util.o(.text) for mcmp
    sec_secro.o(.text) refers to lludiv5.o(.text) for __aeabi_uldivmod
    sec_secro.o(.text) refers to logging.o(.text) for DBG_MSG
    sec_secro.o(.text) refers to memset.o(.text) for memset
    sec_secro.o(.text) refers to sej_export.o(.text) for sp_swotp_set
    sec_secro.o(.text) refers to msha1.o(.text) for sha1
    sec_secro.o(.text) refers to hw_config.o(.text) for mem_overlap_copy
    sec_secro.o(.text) refers to seccfg_ver.o(.text) for get_seccfg_ver
    sec_secro.o(.text) refers to assert.o(.text) for _assert
    sec_secro.o(.text) refers to sec_dev.o(.data) for g_CurDevType
    sec_secro.o(.text) refers to BLOADER.o(.data) for g_pNandInfo
    sec_secro.o(.text) refers to security.o(.bss) for g_LoadInfo
    sec_secro.o(.text) refers to sec_secro.o(.constdata) for .constdata
    sec_secro.o(.text) refers to sec_secro.o(.data) for .data
    sec_secro.o(.text) refers to strlen.o(.text) for strlen
    sec_flashtool_cfg.o(.text) refers to rt_neon_memclr_w.o(.text) for __aeabi_memclr4
    sec_flashtool_cfg.o(.text) refers to strlen.o(.text) for strlen
    sec_flashtool_cfg.o(.text) refers to sec_util.o(.text) for mcmp
    sec_flashtool_cfg.o(.text) refers to sec_secro.o(.text) for is_sw_sec_boot_chk_img_by_pass
    sec_flashtool_cfg.o(.text) refers to security.o(.bss) for g_LoadInfo
    sec_flashtool_cfg.o(.text) refers to BLOADER.o(.bss) for g_COM_Driver
    dramc_calib.o(.text) refers to xgpt.o(.text) for gpt4_busy_wait_us
    dramc_calib.o(.text) refers to logging.o(.text) for DBG_MSG
    dramc_calib.o(.text) refers to EMI.o(.text) for mt_get_dram_type
    dramc_calib.o(.text) refers to dramc_dqs_gw.o(.text) for do_dqs_gw_calib_1
    dramc_calib.o(.text) refers to dramc_calib.o(.data) for .data
    dramc_calib.o(.text) refers to dramc_dle_cal.o(.text) for do_dle_calib
    dramc_calib.o(.text) refers to dramc_calib.o(.bss) for .bss
    dramc_calib.o(.text) refers to dramc_dqs_gw.o(.data) for opt_gw_coarse_value
    dramc_calib.o(.text) refers to dramc_dqs_gw.o(.data) for opt_gw_fine_value0
    dramc_calib.o(.text) refers to dramc_dqs_gw.o(.data) for opt_gw_coarse_value1
    dramc_calib.o(.text) refers to dramc_dqs_gw.o(.data) for opt_gw_fine_value1
    efi.o(.text) refers to uread4.o(.text) for __aeabi_uread4
    efi.o(.text) refers to logging.o(.text) for DBG_MSG
    efi.o(.text) refers to memset.o(.text) for memset
    efi.o(.text) refers to uwrite4.o(.text) for __aeabi_uwrite4
    efi.o(.text) refers to efi.o(.data) for .data
    efi.o(.text) refers to efi.o(.bss) for .bss
    efi.o(.text) refers to sdmmc.o(.data) for g_sdmmc_user_size
    efi.o(.text) refers to efi.o(.constdata) for .constdata
    efi.o(.text) refers to sdmmc.o(.text) for SDMMC_Erase_Part
    efi.o(.text) refers to sdmmc.o(.text) for SDMMC_Write_Part
    pmic_wrap_init.o(.text) refers to logging.o(.text) for DBG_MSG
    pmic_wrap_init.o(.text) refers to platform.o(.data) for g_PmicType
    pmic_wrap_init.o(.text) refers to pmic_wrap_init.o(.constdata) for .constdata
    pmic_wrap_init.o(.text) refers to logging.o(.text) for DBG_MSG
    pmic_wrap_init.o(.text) refers to logging.o(.text) for DBG_MSG
    pmic_wrap_init.o(.text) refers to pmic_wrap_init.o(.text) for pwrap_read_nochk
    pmic_wrap_init.o(.text) refers to platform.o(.data) for g_PmicType
    rtc.o(.text) refers to xgpt.o(.text) for get_timer
    rtc.o(.text) refers to pmic_wrap_init.o(.text) for pwrap_write
    rtc.o(.text) refers to logging.o(.text) for DBG_MSG
    rtc.o(.text) refers to dl_usbacm_adap.o(.text) for COM_Is_USB_Download_Mode
    rtc.o(.text) refers to rtc.o(.data) for .data
    rtc.o(.text) refers to platform.o(.data) for g_PmicType
    rtc.o(.text) refers to BLOADER.o(.data) for g_wo_bat_configure
    rtc.o(.text) refers to pmic_wrap_init.o(.text) for pwrap_write
    rtc.o(.text) refers to xgpt.o(.text) for mdelay
    rtc.o(.text) refers to rtc.o(.data) for .data
    rtc.o(.text) refers to xgpt.o(.text) for get_timer
    rtc.o(.text) refers to rtc.o(.text) for rtc_xosc_write
    rtc.o(.text) refers to pmic_wrap_init.o(.text) for pwrap_write
    rtc.o(.text) refers to rtc.o(.text) for RTC_Read
    rtc.o(.text) refers to rtc.o(.data) for .data
    rtc.o(.text) refers to rtc.o(.text) for RTC_Read
    rtc.o(.text) refers to pmic_wrap_init.o(.text) for pwrap_write
    rtc.o(.text) refers to xgpt.o(.text) for mdelay
    rtc.o(.text) refers to rtc.o(.text) for get_frequency_meter
    rtc.o(.text) refers to rtc.o(.text) for RTC_Read
    rtc.o(.text) refers to pmic_wrap_init.o(.text) for pwrap_write
    rtc.o(.text) refers to xgpt.o(.text) for mdelay
    rtc.o(.text) refers to rtc.o(.text) for get_frequency_meter
    rtc.o(.text) refers to rtc.o(.text) for RTC_Read
    rtc.o(.text) refers to pmic_wrap_init.o(.text) for pwrap_write
    rtc.o(.text) refers to rtc.o(.text) for rtc_xosc_write
    rtc.o(.text) refers to xgpt.o(.text) for mdelay
    rtc.o(.text) refers to rtc.o(.text) for RTC_Read
    rtc.o(.text) refers to pmic_wrap_init.o(.text) for pwrap_write
    rtc.o(.text) refers to rtc.o(.text) for get_frequency_meter
    rtc.o(.text) refers to rtc.o(.data) for .data
    rtc.o(.text) refers to rtc.o(.text) for rtc_switch_mode
    rtc.o(.text) refers to rtc.o(.text) for rtc_measure_four_clock_6397
    rtc.o(.text) refers to rtc.o(.text) for rtc_measure_four_clock_6323
    rtc.o(.text) refers to rtc.o(.text) for rtc_xosc_check_clock
    rtc.o(.text) refers to rtc.o(.text) for rtc_eosc_check_clock
    rtc.o(.text) refers to rtc.o(.text) for eosc_cali
    rtc.o(.text) refers to rtc.o(.text) for rtc_xosc_write
    rtc.o(.text) refers to rtc.o(.data) for .data
    rtc.o(.text) refers to rtc.o(.text) for RTC_Read
    rtc.o(.text) refers to pmic_wrap_init.o(.text) for pwrap_write
    rtc.o(.text) refers to rtc.o(.data) for .data
    rtc.o(.text) refers to rtc.o(.text) for rtc_frequency_meter_check
    rtc.o(.text) refers to rtc.o(.text) for rtc_init_after_recovery
    rtc.o(.text) refers to rtc.o(.data) for .data
    rtc.o(.text) refers to rtc.o(.text) for RTC_Read
    rtc.o(.text) refers to rtc.o(.text) for rtc_gpio_init
    rtc.o(.text) refers to rtc.o(.text) for rtc_get_xosc_mode
    rtc.o(.text) refers to pmic_wrap_init.o(.text) for pwrap_write
    rtc.o(.text) refers to rtc.o(.text) for rtc_xosc_write
    rtc.o(.text) refers to xgpt.o(.text) for gpt4_busy_wait_us
    rtc.o(.text) refers to rtc.o(.text) for eosc_cali
    rtc.o(.text) refers to rtc.o(.data) for .data
    rtc.o(.text) refers to rtc.o(.text) for Writeif_unlock
    rtc.o(.text) refers to rtc.o(.text) for rtc_gpio_init
    rtc.o(.text) refers to rtc.o(.text) for rtc_switch_mode
    rtc.o(.text) refers to pmic_wrap_init.o(.text) for pwrap_write
    rtc.o(.text) refers to xgpt.o(.text) for mdelay
    rtc.o(.text) refers to rtc.o(.text) for rtc_frequency_meter_check
    rtc.o(.text) refers to rtc.o(.data) for .data
    rtc.o(.text) refers to pmic_wrap_init.o(.text) for pwrap_write
    rtc.o(.text) refers to rtc.o(.text) for rtc_measure_four_clock
    rtc.o(.text) refers to rtc.o(.text) for rtc_xosc_check_clock
    rtc.o(.text) refers to rtc.o(.text) for rtc_eosc_check_clock
    rtc.o(.text) refers to rtc.o(.text) for RTC_Read
    rtc.o(.text) refers to rtc.o(.text) for rtc_first_boot_init
    rtc.o(.text) refers to rtc.o(.text) for rtc_recovery_flow
    rtc.o(.text) refers to rtc.o(.text) for rtc_osc_init
    rtc.o(.text) refers to rtc.o(.text) for rtc_get_xosc_mode
    rtc.o(.text) refers to rtc.o(.data) for .data
    rtc.o(.text) refers to pmic_wrap_init.o(.text) for pwrap_write
    rtc.o(.text) refers to rtc.o(.text) for RTC_Read
    rtc.o(.text) refers to rtc.o(.text) for rtc_first_boot_init
    rtc.o(.text) refers to rtc.o(.text) for rtc_recovery_flow
    rtc.o(.text) refers to rtc.o(.text) for rtc_osc_init
    rtc.o(.text) refers to rtc.o(.text) for rtc_get_xosc_mode
    rtc.o(.text) refers to rtc.o(.data) for .data
    rtc.o(.text) refers to rtc.o(.text) for rtc_boot_check_6397
    rtc.o(.text) refers to rtc.o(.text) for rtc_boot_check_6323
    rtc.o(.text) refers to rtc.o(.data) for .data
    rtc.o(.text) refers to logging.o(.text) for DBG_MSG
    rtc.o(.text) refers to rtc.o(.text) for rtc_bbpu_power_down
    rtc.o(.text) refers to rtc.o(.text) for RTC_Read
    rtc.o(.text) refers to rtc.o(.data) for .data
    rtc.o(.text) refers to rtc.o(.text) for Writeif_unlock
    rtc.o(.text) refers to pmic_wrap_init.o(.text) for pwrap_write
    rtc.o(.text) refers to rtc.o(.text) for rtc_gpio_init
    rtc.o(.text) refers to rtc.o(.data) for .data
    rtc.o(.text) refers to rtc.o(.text) for RTC_Read
    rtc.o(.text) refers to pmic_wrap_init.o(.text) for pwrap_write
    rtc.o(.text) refers to xgpt.o(.text) for mdelay
    rtc.o(.text) refers to rtc.o(.text) for get_frequency_meter
    mmc_core.o(.text) refers to rt_noneon_memcpy_w_ca9.o(.text) for __aeabi_memcpy4
    mmc_core.o(.text) refers to logging.o(.text) for DBG_MSG
    mmc_core.o(.text) refers to memcpy.o(.text) for memcpy
    mmc_core.o(.text) refers to mmc_core.o(.constdata) for .constdata
    mmc_core.o(.text) refers to uread4.o(.text) for __aeabi_uread4
    mmc_core.o(.text) refers to mmc_core.o(.bss) for .bss
    mmc_core.o(.text) refers to xgpt.o(.text) for mdelay
    mmc_core.o(.text) refers to memset.o(.text) for memset
    mmc_core.o(.text) refers to aeabi_sdiv_cr4.o(x$udivmod) for __aeabi_uidivmod
    mmc_core.o(.text) refers to msdc.o(.text) for msdc_reset_tune_counter
    mmc_core.o(.text) refers to msdc_utils.o(.text) for msdc_ntohl
    mmc_core.o(.text) refers to sdmmc_handler.o(.data) for g_ds_sdmmc_block_read_number
    mmc_core.o(.text) refers to sdmmc.o(.text) for SDMMC_GetEraseSize
    mmc_core.o(.text) refers to msdc.o(.text) for msdc_card_avail
    mmc_core.o(.text) refers to msdc.o(.text) for msdc_card_protected
    mmc_core.o(.text) refers to mmc_core.o(.text) for mmc_cmd
    mmc_core.o(.text) refers to mmc_core.o(.text) for mmc_cmd
    mmc_core.o(.text) refers to rt_memcpy.o(.text) for __aeabi_memcpy
    mmc_core.o(.text) refers to aeabi_sdiv_cr4.o(x$udivmod) for __aeabi_uidivmod
    mmc_core.o(.text) refers to mmc_core.o(.text) for mmc_set_ext_csd
    mmc_core.o(.text) refers to aeabi_sdiv_cr4.o(x$udivmod) for __aeabi_uidivmod
    mmc_core.o(.text) refers to mmc_core.o(.text) for mmc_set_ext_csd
    mmc_core.o(.text) refers to mmc_core.o(.text) for mmc_set_ext_csd
    mmc_core.o(.text) refers to mmc_core.o(.text) for mmc_set_ext_csd
    mmc_core.o(.text) refers to mmc_core.o(.text) for mmc_set_ext_csd
    mmc_core.o(.text) refers to mmc_core.o(.text) for mmc_set_ext_csd
    mmc_core.o(.text) refers to mmc_core.o(.text) for mmc_set_ext_csd
    mmc_core.o(.text) refers to mmc_core.o(.text) for mmc_set_part_config
    mmc_core.o(.text) refers to mmc_core.o(.text) for mmc_set_boot_bus
    mmc_core.o(.text) refers to mmc_core.o(.text) for mmc_set_part_config
    mmc_core.o(.text) refers to mmc_core.o(.text) for mmc_set_part_config
    mmc_core.o(.text) refers to mmc_core.o(.text) for mmc_switch
    mmc_core.o(.text) refers to mmc_core.o(.text) for mmc_switch
    mmc_core.o(.text) refers to rt_neon_memclr_w.o(.text) for __aeabi_memclr4
    mmc_core.o(.text) refers to mmc_core.o(.text) for mmc_init_host
    mmc_core.o(.text) refers to memset.o(.text) for memset
    mmc_core.o(.text) refers to logging.o(.text) for DBG_MSG
    mmc_core.o(.text) refers to memcpy.o(.text) for memcpy
    mmc_core.o(.text) refers to mmc_core.o(.bss) for .bss
    mmc_core.o(.text) refers to mmc_core.o(.constdata) for .constdata
    mmc_core.o(.constdata) refers to mmc_core.o(.conststring) for .conststring
    sdmmc_download_internal.o(.text) refers to sdmmc.o(.text) for SDMMC_Read
    sdmmc_download_internal.o(.text) refers to uread4.o(.text) for __aeabi_uread4
    sdmmc_download_internal.o(.text) refers to logging.o(.text) for DBG_MSG
    sdmmc_download_internal.o(.text) refers to memset.o(.text) for memset
    sdmmc_download_internal.o(.text) refers to hw_config.o(.text) for mem_overlap_copy
    sdmmc_download_internal.o(.text) refers to sdmmc_download_internal.o(.bss) for .bss
    sdmmc_download_internal.o(.text) refers to BLOADER.o(.bss) for g_Rx_Buffer
    sdmmc_download_internal.o(.text) refers to sdmmc_download_internal.o(.text) for SDMMC_Download_BL_GetHdrBlkLocation_Internal
    sdmmc_download_internal.o(.text) refers to sdmmc.o(.text) for SDMMC_Read
    sdmmc_download_internal.o(.text) refers to memcmp.o(.text) for memcmp
    sdmmc_download_internal.o(.text) refers to hw_config.o(.text) for mem_overlap_copy
    nand_download_internal.o(.text) refers to nand_util_func.o(.text) for NUTL_FindGoodBlock
    nand_download_internal.o(.text) refers to aeabi_sdiv_cr4.o(x$udivmod) for __aeabi_uidivmod
    nand_download_internal.o(.text) refers to logging.o(.text) for DBG_MSG
    nand_download_internal.o(.text) refers to memcmp.o(.text) for memcmp
    nand_download_internal.o(.text) refers to hw_config.o(.text) for mem_overlap_copy
    nand_download_internal.o(.text) refers to hw_config.o(.data) for double_nfb
    nand_download_internal.o(.text) refers to BLOADER.o(.data) for g_pNandInfo
    nand_download_internal.o(.text) refers to nand_download_internal.o(.data) for .data
    nand_download_internal.o(.text) refers to main_nand.o(.bss) for g_NMAIN_TmpPage
    nand_download_internal.o(.text) refers to BLOADER.o(.bss) for g_Rx_Buffer
    nand_download_internal.o(.text) refers to memset.o(.text) for memset
    test_bus.o(.text) refers to BLOADER.o(.bss) for g_COM_Driver
    test_ext_sram.o(.text) refers to rt_noneon_memcpy_w_ca9.o(.text) for __aeabi_memcpy4
    test_ext_sram.o(.text) refers to rt_neon_memclr_w.o(.text) for __aeabi_memclr4
    test_ext_sram.o(.text) refers to memcpy.o(.text) for memcpy
    test_ext_sram.o(.text) refers to memcmp.o(.text) for memcmp
    test_ext_sram.o(.text) refers to logging.o(.text) for DBG_MSG
    test_ext_sram.o(.text) refers to test_ext_sram.o(.constdata) for .constdata
    dl_usb_mode.o(.text) refers to dl_usb_resource.o(.text) for USB_Register_CreateFunc
    dl_usb_mode.o(.text) refers to dl_usb.o(.text) for USB_Init
    dl_usb_mode.o(.text) refers to dl_usb.o(.bss) for gUsbDevice
    dl_usb_mode.o(.text) refers to dl_usbacm_drv.o(.text) for USB_Acm_DataIf_Speed_Reset
    dl_usb_mode.o(.text) refers to dl_usbacm_drv.o(.bss) for g_UsbACM
    dl_usb_resource.o(.text) refers to assert.o(.text) for _assert
    dl_usb_resource.o(.text) refers to kal_release.o(.text) for kal_mem_cpy
    dl_usb_resource.o(.text) refers to dl_usb_resource.o(.data) for .data
    dl_usb_resource.o(.text) refers to dl_usb_resource.o(.bss) for .bss
    dl_usb_resource.o(.text) refers to dl_usb.o(.bss) for gUsbDevice
    dl_usb_resource.o(.text) refers to dl_usb_resource.o(.constdata) for .constdata
    dl_usb_resource.o(.text) refers to dl_usb.o(.data) for gUsbSetupInfo
    dl_usbacm_drv.o(.text) refers to dl_usb_drv.o(.text) for USB_EP0_Pkt_Len
    dl_usbacm_drv.o(.text) refers to assert.o(.text) for _assert
    dl_usbacm_drv.o(.text) refers to dl_usb_debug_tool.o(.text) for USB_Dbg_Trace
    dl_usbacm_drv.o(.text) refers to dl_usb.o(.text) for USB_Register_EP0_RxHdlr
    dl_usbacm_drv.o(.text) refers to dl_usb_resource.o(.text) for USB_Get_Interface_Number
    dl_usbacm_drv.o(.text) refers to dl_usbacm_drv.o(.bss) for .bss
    dl_usbacm_drv.o(.text) refers to dl_usb.o(.bss) for gUsbDevice
    dl_usbacm_drv.o(.text) refers to dl_usbacm_adap.o(.bss) for usbacm_rx_buf
    dl_usbacm_drv.o(.text) refers to dl_usbacm_drv.o(.data) for .data
    usbphy.o(.text) refers to xgpt.o(.text) for udelay
    md5.o(.text) refers to uread4.o(.text) for __aeabi_uread4
    md5.o(.text) refers to md5.o(.data) for .data
    msha1.o(.text) refers to uread4.o(.text) for __aeabi_uread4
    msha1.o(.text) refers to memcpy.o(.text) for memcpy
    msha1.o(.text) refers to msha1.o(.constdata) for .constdata
    msha1.o(.text) refers to memset.o(.text) for memset
    sec_dl.o(.text) refers to sej_export.o(.text) for sec_sej_key_init
    sec_dl.o(.text) refers to logging.o(.text) for DBG_MSG
    sec_dl.o(.text) refers to seccfg_ver.o(.text) for get_seccfg_ver
    sec_dl.o(.text) refers to assert.o(.text) for _assert
    sec_dl.o(.text) refers to sec_dl_v1.o(.text) for sec_v1_post_proc
    sec_dl.o(.text) refers to sec_dl_v3.o(.text) for sec_v3_post_proc
    sec_dl.o(.text) refers to security.o(.bss) for g_LoadInfo
    sec_info.o(.text) refers to seccfg_ver.o(.text) for get_seccfg_ver
    sec_info.o(.text) refers to assert.o(.text) for _assert
    sec_info.o(.text) refers to sec_info_v1.o(.text) for sec_img_info_v1_add
    sec_info.o(.text) refers to sec_info_v3.o(.text) for sec_img_info_v3_add
    sec_info.o(.text) refers to security.o(.bss) for g_LoadInfo
    seccfg.o(.text) refers to memset.o(.text) for memset
    seccfg.o(.text) refers to security.o(.text) for FindInfo
    seccfg.o(.text) refers to hw_config.o(.text) for mem_overlap_copy
    seccfg.o(.text) refers to logging.o(.text) for DBG_MSG
    seccfg.o(.text) refers to seccfg_ver.o(.text) for set_seccfg_ver
    seccfg.o(.text) refers to assert.o(.text) for _assert
    seccfg.o(.text) refers to memcpy.o(.text) for memcpy
    seccfg.o(.text) refers to security.o(.bss) for g_LoadInfo
    seccfg_ver.o(.text) refers to assert.o(.text) for _assert
    seccfg_ver.o(.text) refers to seccfg_ver.o(.data) for .data
    seccfg_crypto.o(.text) refers to logging.o(.text) for DBG_MSG
    seccfg_crypto.o(.text) refers to sej_export.o(.text) for sp_swotp_set
    seccfg_crypto.o(.text) refers to seccfg_ver.o(.text) for get_seccfg_ver
    seccfg_crypto.o(.text) refers to assert.o(.text) for _assert
    seccfg_crypto.o(.text) refers to security.o(.bss) for g_LoadInfo
    sec_dev.o(.text) refers to logging.o(.text) for DBG_MSG
    sec_dev.o(.text) refers to hw_config.o(.text) for mem_set
    sec_dev.o(.text) refers to sdmmc.o(.text) for SDMMC_Write
    sec_dev.o(.text) refers to lludiv5.o(.text) for __aeabi_uldivmod
    sec_dev.o(.text) refers to bmt.o(.text) for NUTL_Logic_BlockErase
    sec_dev.o(.text) refers to memset.o(.text) for memset
    sec_dev.o(.text) refers to sec_util.o(.text) for mcpy
    sec_dev.o(.text) refers to nand_util_func.o(.text) for NUTL_FindGoodBlock
    sec_dev.o(.text) refers to sec_dev.o(.data) for .data
    sec_dev.o(.text) refers to hw_config.o(.bss) for g_HW_DetectionResult
    sec_dev.o(.text) refers to sec_dev.o(.bss) for .bss
    sec_dev.o(.text) refers to BLOADER.o(.data) for g_pNandInfo
    sec_util.o(.text) refers to logging.o(.text) for DBG_MSG
    sec_hdr.o(.text) refers to assert.o(.text) for _assert
    sec_hdr.o(.text) refers to sec_hdr.o(.data) for .data
    sej_hk.o(.text) refers to sej_hk.o(.constdata) for .constdata
    sej_export.o(.text) refers to sej_hk.o(.text) for SEJ_SWOTP_Set
    sej_export.o(.text) refers to logging.o(.text) for DBG_MSG
    sej_export.o(.text) refers to sej_sk.o(.text) for sej_set_key
    sej_export.o(.text) refers to security.o(.bss) for g_LoadInfo
    sha1_sw.o(.text) refers to strlen.o(.text) for strlen
    sha1_sw.o(.text) refers to strcpy.o(.text) for strcpy
    sha1_sw.o(.text) refers to sha1_sw.o(.bss) for .bss
    dramc_dle_cal.o(.text) refers to xgpt.o(.text) for gpt4_busy_wait_us
    dramc_dle_cal.o(.text) refers to EMI.o(.text) for myatoi
    dramc_dle_cal.o(.text) refers to logging.o(.text) for DBG_MSG
    dramc_dle_cal.o(.text) refers to dramc_dqs_gw.o(.text) for ett_recursive_factor_tuning
    dramc_dle_cal.o(.text) refers to dramc_dle_cal.o(.data) for .data
    dramc_dle_cal.o(.text) refers to dramc_dle_cal.o(.constdata) for .constdata
    dramc_dle_cal.o(.text) refers to dramc_dle_cal.o(.bss) for .bss
    dramc_dle_cal.o(.text) refers to EMI.o(.text) for myatoi
    dramc_dle_cal.o(.text) refers to EMI.o(.text) for myatoi
    dramc_dle_cal.o(.text) refers to rt_noneon_memcpy_w_ca9.o(.text) for __aeabi_memcpy4
    dramc_dle_cal.o(.text) refers to dramc_dle_cal.o(.constdata) for .constdata
    dramc_dle_cal.o(.data) refers to dramc_dle_cal.o(.conststring) for .conststring
    dramc_dle_cal.o(.data) refers to dramc_dle_cal.o(.text) for dle_factor_handler
    dramc_dle_cal.o(.data) refers to dramc_dle_cal.o(.conststring) for .conststring
    dramc_dle_cal.o(.data) refers to dramc_dle_cal.o(.data) for dle_tbl
    dramc_dle_cal.o(.data) refers to dramc_dle_cal.o(.text) for dle_factor_handler
    dramc_dle_cal.o(.data) refers to dramc_dle_cal.o(.conststring) for .conststring
    dramc_dqs_gw.o(.text) refers to EMI.o(.text) for mt_get_dram_type
    dramc_dqs_gw.o(.text) refers to logging.o(.text) for DBG_MSG
    dramc_dqs_gw.o(.text) refers to xgpt.o(.text) for gpt4_busy_wait_us
    dramc_dqs_gw.o(.text) refers to dramc_dqs_gw.o(.data) for .data
    dramc_dqs_gw.o(.text) refers to dramc_dqs_gw.o(.constdata) for .constdata
    dramc_dqs_gw.o(.text) refers to dramc_dqs_gw.o(.bss) for .bss
    dramc_dqs_gw.o(.text) refers to memset.o(.text) for memset
    dramc_dqs_gw.o(.text) refers to dramc_calib.o(.data) for RANK_CURR
    dramc_dqs_gw.o(.text) refers to logging.o(.text) for DBG_MSG
    dramc_dqs_gw.o(.text) refers to xgpt.o(.text) for gpt4_busy_wait_us
    dramc_dqs_gw.o(.text) refers to logging.o(.text) for DBG_MSG
    dramc_dqs_gw.o(.data) refers to dramc_dqs_gw.o(.conststring) for .conststring
    dramc_dqs_gw.o(.data) refers to dramc_dqs_gw.o(.text) for dqsi_gw_dly_fine_factor_handler
    dramc_dqs_gw.o(.data) refers to dramc_dqs_gw.o(.text) for dramc_ta2
    msdc.o(.text) refers to logging.o(.text) for DBG_MSG
    msdc.o(.text) refers to msdc_utils.o(.text) for msdc_set_field
    msdc.o(.text) refers to memset.o(.text) for memset
    msdc.o(.text) refers to aeabi_sdiv_cr4.o(x$udivmod) for __aeabi_uidivmod
    msdc.o(.text) refers to xgpt.o(.text) for udelay
    msdc.o(.text) refers to msdc.o(.data) for .data
    msdc.o(.text) refers to rt_noneon_memcpy_w_ca9.o(.text) for __aeabi_memcpy4
    msdc.o(.text) refers to msdc.o(.constdata) for .constdata
    msdc.o(.text) refers to msdc_cust.o(.data) for msdc_cap
    msdc.o(.text) refers to msdc.o(.bss) for .bss
    msdc.o(.text) refers to msdc_utils.o(.text) for msdc_set_field
    msdc.o(.text) refers to xgpt.o(.text) for udelay
    msdc.o(.text) refers to msdc_utils.o(.text) for msdc_set_field
    msdc.o(.text) refers to logging.o(.text) for DBG_MSG
    msdc.o(.text) refers to msdc.o(.text) for msdc_pio_write_word
    msdc.o(.text) refers to msdc.o(.text) for msdc_abort
    msdc.o(.text) refers to msdc.o(.text) for msdc_card_detect
    msdc.o(.text) refers to xgpt.o(.text) for udelay
    msdc_utils.o(.text) refers to msdc_utils.o(.text) for msdc_uffs
    msdc_utils.o(.text) refers to msdc_utils.o(.text) for msdc_uffs
    sec_dl_v1.o(.text) refers to seccfg_crypto.o(.text) for get_seccfg_cipher_len
    sec_dl_v1.o(.text) refers to logging.o(.text) for DBG_MSG
    sec_dl_v1.o(.text) refers to sec_hdr.o(.text) for shdr_cust_name
    sec_dl_v1.o(.text) refers to sec_util.o(.text) for scmp
    sec_dl_v1.o(.text) refers to sec_dl.o(.text) for sec_img_post_proc
    sec_dl_v1.o(.text) refers to seccfg_dev.o(.text) for sec_write_seccfg
    sec_dl_v1.o(.text) refers to memset.o(.text) for memset
    sec_dl_v1.o(.text) refers to sec_dev.o(.text) for sec_read_dev
    sec_dl_v1.o(.text) refers to sec_secro.o(.text) for sec_secro_post_proc
    sec_dl_v1.o(.text) refers to rt_neon_memclr_w.o(.text) for __aeabi_memclr4
    sec_dl_v1.o(.text) refers to memcpy.o(.text) for memcpy
    sec_dl_v1.o(.text) refers to sec_info_v1.o(.text) for sec_img_info_v1_add
    sec_dl_v1.o(.text) refers to security.o(.bss) for g_LoadInfo
    sec_dl_v1.o(.text) refers to sec_dl.o(.data) for bSecCfgUpdate
    sec_info_v1.o(.text) refers to memcmp.o(.text) for memcmp
    sec_info_v1.o(.text) refers to logging.o(.text) for DBG_MSG
    sec_info_v1.o(.text) refers to sec_util.o(.text) for scmp
    sec_info_v1.o(.text) refers to memset.o(.text) for memset
    sec_info_v1.o(.text) refers to sec_hdr.o(.text) for shdr_img_ver
    sec_info_v1.o(.text) refers to memcpy.o(.text) for memcpy
    sec_info_v1.o(.text) refers to security.o(.bss) for g_LoadInfo
    sec_info_v1.o(.text) refers to sec_dl.o(.data) for bSecCfgUpdate
    sec_dl_v3.o(.text) refers to seccfg_crypto.o(.text) for get_seccfg_cipher_len
    sec_dl_v3.o(.text) refers to logging.o(.text) for DBG_MSG
    sec_dl_v3.o(.text) refers to sec_hdr.o(.text) for shdr_cust_name
    sec_dl_v3.o(.text) refers to sec_util.o(.text) for scmp
    sec_dl_v3.o(.text) refers to sec_dl.o(.text) for sec_img_post_proc
    sec_dl_v3.o(.text) refers to lludiv5.o(.text) for __aeabi_uldivmod
    sec_dl_v3.o(.text) refers to seccfg_dev.o(.text) for sec_write_seccfg
    sec_dl_v3.o(.text) refers to hw_config.o(.text) for mem_set
    sec_dl_v3.o(.text) refers to sec_dev.o(.text) for sec_read_dev
    sec_dl_v3.o(.text) refers to sec_secro.o(.text) for sec_secro_post_proc
    sec_dl_v3.o(.text) refers to rt_neon_memclr_w.o(.text) for __aeabi_memclr4
    sec_dl_v3.o(.text) refers to memcpy.o(.text) for memcpy
    sec_dl_v3.o(.text) refers to sec_info_v3.o(.text) for sec_img_info_v3_add
    sec_dl_v3.o(.text) refers to security.o(.bss) for g_LoadInfo
    sec_dl_v3.o(.text) refers to sec_dl.o(.data) for bSecCfgUpdate
    sec_dl_v3.o(.text) refers to sec_dev.o(.data) for g_CurDevType
    sec_dl_v3.o(.text) refers to BLOADER.o(.data) for g_pNandInfo
    sec_dl_v3.o(.text) refers to ext_region.o(.text) for sec_ext_reg_init
    sec_info_v3.o(.text) refers to memcmp.o(.text) for memcmp
    sec_info_v3.o(.text) refers to strlen.o(.text) for strlen
    sec_info_v3.o(.text) refers to logging.o(.text) for DBG_MSG
    sec_info_v3.o(.text) refers to sec_util.o(.text) for scmp
    sec_info_v3.o(.text) refers to memset.o(.text) for memset
    sec_info_v3.o(.text) refers to ext_region.o(.text) for sec_ext_reg_init
    sec_info_v3.o(.text) refers to sec_hdr.o(.text) for shdr_img_ver
    sec_info_v3.o(.text) refers to security.o(.bss) for g_LoadInfo
    sec_info_v3.o(.text) refers to sec_dl.o(.data) for bSecCfgUpdate
    sej_sk.o(.text) refers to memcpy.o(.text) for memcpy
    sej_sk.o(.text) refers to memset.o(.text) for memset
    sej_sk.o(.text) refers to uread4.o(.text) for __aeabi_uread4
    sej_sk.o(.text) refers to logging.o(.text) for DBG_MSG
    sej_sk.o(.text) refers to sej_sk.o(.bss) for .bss
    ext_region.o(.text) refers to memcpy.o(.text) for memcpy
    ext_region.o(.text) refers to logging.o(.text) for DBG_MSG
    ext_region.o(.text) refers to sec_util.o(.text) for mcmp
    ext_region.o(.text) refers to seccfg_ver.o(.text) for get_seccfg_ver
    ext_region.o(.text) refers to ext_region.o(.data) for .data
    ext_region.o(.text) refers to security.o(.bss) for g_LoadInfo
    seccfg_dev.o(.text) refers to logging.o(.text) for DBG_MSG
    seccfg_dev.o(.text) refers to hw_config.o(.text) for mem_set
    seccfg_dev.o(.text) refers to sec_util.o(.text) for mcpy
    seccfg_dev.o(.text) refers to sdmmc.o(.text) for SDMMC_Write
    seccfg_dev.o(.text) refers to lludiv5.o(.text) for __aeabi_uldivmod
    seccfg_dev.o(.text) refers to seccfg_ver.o(.text) for get_seccfg_ver
    seccfg_dev.o(.text) refers to assert.o(.text) for _assert
    seccfg_dev.o(.text) refers to bmt.o(.text) for NUTL_Logic_BlockErase
    seccfg_dev.o(.text) refers to nand_util_func.o(.text) for NUTL_FindGoodBlock
    seccfg_dev.o(.text) refers to sec_dev.o(.data) for g_CurDevType
    seccfg_dev.o(.text) refers to hw_config.o(.bss) for g_HW_DetectionResult
    seccfg_dev.o(.text) refers to sec_dev.o(.bss) for sec_page
    seccfg_dev.o(.text) refers to BLOADER.o(.data) for g_pNandInfo
    seccfg_dev.o(.text) refers to security.o(.bss) for g_LoadInfo
    free.o(.text) refers (Special) to hguard.o(.text) for __heap$guard
    free.o(.text) refers to rt_heap_descriptor.o(.text) for __rt_heap_descriptor
    free.o(.text) refers to heapstubs.o(.text) for __Heap_Free
    h1_free.o(.text) refers to rt_heap_descriptor.o(.text) for __rt_heap_descriptor
    h1_free_mt.o(.text) refers to rt_heap_descriptor.o(.text) for __rt_heap_descriptor
    heap2.o(i._FDIterate) refers to heap2.o(.constdata) for .constdata
    heap2.o(i.___Heap_ProvideMemory$realtime) refers to fdtree.o(i._FDTree_Delete) for _FDTree_Delete
    heap2.o(i.___Heap_ProvideMemory$realtime) refers to fdtree.o(i._FDTree_Insert) for _FDTree_Insert
    heap2.o(i.___Heap_Stats$realtime) refers to heap2.o(i._Heap2_StatsIterate) for _Heap2_StatsIterate
    heap2.o(i.___Heap_Stats$realtime) refers to aeabi_sdiv_cr4.o(x$udivmod) for __aeabi_uidivmod
    heap2.o(i.___Heap_Valid$realtime) refers to heap2.o(i._FDIterate) for _FDIterate
    heap2.o(i.___Heap_Valid$realtime) refers to heap2.o(.constdata) for .constdata
    heap2.o(i._free$realtime) refers to rt_heap_descriptor.o(.text) for __rt_heap_descriptor
    heap2.o(i._free$realtime) refers to fdtree.o(i._FDTree_Delete) for _FDTree_Delete
    heap2.o(i._free$realtime) refers to fdtree.o(i._FDTree_Insert) for _FDTree_Insert
    heap2.o(i._malloc$realtime) refers to rt_heap_descriptor.o(.text) for __rt_heap_descriptor
    heap2.o(i._malloc$realtime) refers to fdtree.o(i._FDTree_FindFirst) for _FDTree_FindFirst
    heap2.o(i._malloc$realtime) refers to init_alloc.o(.text) for __Heap_Full
    heap2.o(i._malloc$realtime) refers to fdtree.o(i._FDTree_RemoveNode) for _FDTree_RemoveNode
    heap2.o(i._malloc$realtime) refers to fdtree.o(i._FDTree_Insert) for _FDTree_Insert
    heap2.o(i._posix_memalign$realtime) refers to rt_heap_descriptor.o(.text) for __rt_heap_descriptor
    heap2.o(i._posix_memalign$realtime) refers to fdtree.o(i._FDTree_FindFirst) for _FDTree_FindFirst
    heap2.o(i._posix_memalign$realtime) refers to init_alloc.o(.text) for __Heap_Full
    heap2.o(i._posix_memalign$realtime) refers to fdtree.o(i._FDTree_RemoveNode) for _FDTree_RemoveNode
    heap2.o(i._posix_memalign$realtime) refers to fdtree.o(i._FDTree_Insert) for _FDTree_Insert
    heap2.o(i._realloc$realtime) refers to rt_heap_descriptor.o(.text) for __rt_heap_descriptor
    heap2.o(i._realloc$realtime) refers to h1_free.o(.text) for free
    heap2.o(i._realloc$realtime) refers to h1_alloc.o(.text) for malloc
    heap2.o(i._realloc$realtime) refers to fdtree.o(i._FDTree_Delete) for _FDTree_Delete
    heap2.o(i._realloc$realtime) refers to fdtree.o(i._FDTree_Insert) for _FDTree_Insert
    heap2.o(i._realloc$realtime) refers to rt_noneon_memcpy_w_ca9.o(.text) for __aeabi_memcpy4
    heap2mt.o(i._FDIterate) refers to heap2mt.o(.constdata) for .constdata
    heap2mt.o(i.___Heap_Initialize$realtime$concurrent) refers to mutex_dummy.o(.text) for _mutex_initialize
    heap2mt.o(i.___Heap_ProvideMemory$realtime$concurrent) refers to fdtree.o(i._FDTree_Delete) for _FDTree_Delete
    heap2mt.o(i.___Heap_ProvideMemory$realtime$concurrent) refers to fdtree.o(i._FDTree_Insert) for _FDTree_Insert
    heap2mt.o(i.___Heap_Stats$realtime$concurrent) refers to heap2mt.o(i._Heap2_StatsIterate) for _Heap2_StatsIterate
    heap2mt.o(i.___Heap_Stats$realtime$concurrent) refers to aeabi_sdiv_cr4.o(x$udivmod) for __aeabi_uidivmod
    heap2mt.o(i.___Heap_Valid$realtime$concurrent) refers to heap2mt.o(i._FDIterate) for _FDIterate
    heap2mt.o(i.___Heap_Valid$realtime$concurrent) refers to heap2mt.o(.constdata) for .constdata
    heap2mt.o(i._free$realtime$concurrent) refers to rt_heap_descriptor.o(.text) for __rt_heap_descriptor
    heap2mt.o(i._free$realtime$concurrent) refers to fdtree.o(i._FDTree_Delete) for _FDTree_Delete
    heap2mt.o(i._free$realtime$concurrent) refers to fdtree.o(i._FDTree_Insert) for _FDTree_Insert
    heap2mt.o(i._malloc$realtime$concurrent) refers to rt_heap_descriptor.o(.text) for __rt_heap_descriptor
    heap2mt.o(i._malloc$realtime$concurrent) refers to fdtree.o(i._FDTree_FindFirst) for _FDTree_FindFirst
    heap2mt.o(i._malloc$realtime$concurrent) refers to init_alloc.o(.text) for __Heap_Full
    heap2mt.o(i._malloc$realtime$concurrent) refers to fdtree.o(i._FDTree_RemoveNode) for _FDTree_RemoveNode
    heap2mt.o(i._malloc$realtime$concurrent) refers to fdtree.o(i._FDTree_Insert) for _FDTree_Insert
    heap2mt.o(i._posix_memalign$realtime$concurrent) refers to rt_heap_descriptor.o(.text) for __rt_heap_descriptor
    heap2mt.o(i._posix_memalign$realtime$concurrent) refers to fdtree.o(i._FDTree_FindFirst) for _FDTree_FindFirst
    heap2mt.o(i._posix_memalign$realtime$concurrent) refers to init_alloc.o(.text) for __Heap_Full
    heap2mt.o(i._posix_memalign$realtime$concurrent) refers to fdtree.o(i._FDTree_RemoveNode) for _FDTree_RemoveNode
    heap2mt.o(i._posix_memalign$realtime$concurrent) refers to fdtree.o(i._FDTree_Insert) for _FDTree_Insert
    heap2mt.o(i._realloc$realtime$concurrent) refers to rt_heap_descriptor.o(.text) for __rt_heap_descriptor
    heap2mt.o(i._realloc$realtime$concurrent) refers to h1_free.o(.text) for free
    heap2mt.o(i._realloc$realtime$concurrent) refers to h1_alloc.o(.text) for malloc
    heap2mt.o(i._realloc$realtime$concurrent) refers to fdtree.o(i._FDTree_Delete) for _FDTree_Delete
    heap2mt.o(i._realloc$realtime$concurrent) refers to fdtree.o(i._FDTree_Insert) for _FDTree_Insert
    heap2mt.o(i._realloc$realtime$concurrent) refers to rt_noneon_memcpy_w_ca9.o(.text) for __aeabi_memcpy4
    locale.o(.text) refers to locale_r.o(.text) for _setlocale_r
    locale.o(.text) refers to locale.o(.bss) for .bss
    memcpy.o(.text) refers to rt_memcpy.o(.text) for __aeabi_memcpy
    rt_memcpy.o(.text) refers to rt_noneon_memcpy_w_ca9.o(.text) for __aeabi_memcpy4
    memset.o(.text) refers to rt_memclr.o(.text) for _memset
    aeabi_sdiv_div0_cr4.o(x$sdiv) refers to aeabi_sdiv_div0_cr4.o(x$div0) for __divbyzero
    aeabi_sdiv_div0_cr4.o(x$sdivmod) refers to aeabi_sdiv_div0_cr4.o(x$div0) for __divbyzero
    aeabi_sdiv_div0_cr4.o(x$udiv) refers to aeabi_sdiv_div0_cr4.o(x$div0) for __divbyzero
    aeabi_sdiv_div0_cr4.o(x$udivmod) refers to aeabi_sdiv_div0_cr4.o(x$div0) for __divbyzero
    aeabi_sdiv_rt_div0_cr4.o(x$sdiv) refers to aeabi_sdiv_rt_div0_cr4.o(x$div0) for __divbyzero
    aeabi_sdiv_rt_div0_cr4.o(x$sdivmod) refers to aeabi_sdiv_rt_div0_cr4.o(x$div0) for __divbyzero
    aeabi_sdiv_rt_div0_cr4.o(x$udiv) refers to aeabi_sdiv_rt_div0_cr4.o(x$div0) for __divbyzero
    aeabi_sdiv_rt_div0_cr4.o(x$udivmod) refers to aeabi_sdiv_rt_div0_cr4.o(x$div0) for __divbyzero
    aeabi_idiv0_sigfpe.o(.text) refers to rt_div0.o(.text) for __rt_div0
    aeabi_ldiv0_sigfpe.o(.text) refers to rt_div0.o(.text) for __rt_div0
    rt_heap_descriptor.o(.text) refers to rt_heap_descriptor.o(.bss) for __rt_heap_descriptor_data
    rt_heap_descriptor_intlibspace.o(.text) refers to libspace.o(.bss) for __libspace_start
    init_alloc.o(.text) refers (Special) to hguard.o(.text) for __heap$guard
    init_alloc.o(.text) refers (Special) to libinit2.o(.ARM.Collect$$libinit$$00000006) for __rt_lib_init_heap_2
    init_alloc.o(.text) refers (Special) to maybetermalloc1.o(.emb_text) for _maybe_terminate_alloc
    init_alloc.o(.text) refers to heapauxa.o(.text) for __rt_heap_expand
    init_alloc.o(.text) refers to h1_extend.o(.text) for __Heap_ProvideMemory
    init_alloc.o(.text) refers to defsig_rtmem_outer.o(.text) for __rt_SIGRTMEM
    init_alloc.o(.text) refers to rt_heap_descriptor.o(.text) for __rt_heap_descriptor
    init_alloc.o(.text) refers to h1_init.o(.text) for __Heap_Initialize
    malloc.o(.text) refers (Special) to hguard.o(.text) for __heap$guard
    malloc.o(.text) refers (Special) to init_alloc.o(.text) for _init_alloc
    malloc.o(.text) refers to rt_heap_descriptor.o(.text) for __rt_heap_descriptor
    malloc.o(.text) refers to heapstubs.o(.text) for __Heap_Alloc
    h1_alloc.o(.text) refers (Special) to h1_init.o(.text) for __Heap_Initialize
    h1_alloc.o(.text) refers to rt_heap_descriptor.o(.text) for __rt_heap_descriptor
    h1_alloc.o(.text) refers to init_alloc.o(.text) for __Heap_Full
    h1_alloc_mt.o(.text) refers (Special) to h1_init.o(.text) for __Heap_Initialize
    h1_alloc_mt.o(.text) refers to init_alloc.o(.text) for __Heap_Full
    h1_alloc_mt.o(.text) refers to rt_heap_descriptor.o(.text) for __rt_heap_descriptor
    locale_r.o(.text) refers to rt_locale.o(.text) for __rt_locale
    locale_r.o(.text) refers to null_locale.o(locale$$data) for __lcnull_start
    rt_memclr.o(.text) refers to rt_neon_memclr_w.o(.text) for _memset_w
    libspace.o(.text) refers to libspace.o(.bss) for __libspace_start
    rt_div0.o(.text) refers to defsig_fpe_outer.o(.text) for __rt_SIGFPE
    rt_locale.o(.text) refers to rt_locale.o(.bss) for __rt_locale_data
    rt_locale_intlibspace.o(.text) refers to libspace.o(.bss) for __libspace_start
    maybetermalloc2.o(.emb_text) refers (Special) to term_alloc.o(.text) for _terminate_alloc
    h1_extend.o(.text) refers to h1_free.o(.text) for free
    h1_init_mt.o(.text) refers to mutex_dummy.o(.text) for _mutex_initialize
    h1_extend_mt.o(.text) refers to h1_free_mt.o(.text) for _free_internal
    defsig_rtmem_outer.o(.text) refers to defsig_rtmem_inner.o(.text) for __rt_SIGRTMEM_inner
    defsig_rtmem_outer.o(.text) refers to defsig_exit.o(.text) for __sig_exit
    defsig_rtmem_formal.o(.text) refers to rt_raise.o(.text) for __rt_raise
    heapauxa.o(.text) refers to heapauxa.o(.data) for .data
    _get_argv.o(.text) refers (Special) to hrguard.o(.text) for __heap_region$guard
    _get_argv.o(.text) refers to h1_alloc.o(.text) for malloc
    _get_argv.o(.text) refers to defsig_rtmem_outer.o(.text) for __rt_SIGRTMEM
    _get_argv.o(.text) refers to sys_command.o(.text) for _sys_command_string
    libinit2.o(.ARM.Collect$$libinit$$00000001) refers (Weak) to init_alloc.o(.text) for _init_alloc
    libinit2.o(.ARM.Collect$$libinit$$0000000B) refers (Weak) to rt_locale.o(.text) for __rt_locale
    libinit2.o(.ARM.Collect$$libinit$$0000000C) refers to libinit2.o(.ARM.Collect$$libinit$$0000000B) for .ARM.Collect$$libinit$$0000000B
    libinit2.o(.ARM.Collect$$libinit$$0000000E) refers to libinit2.o(.ARM.Collect$$libinit$$0000000B) for .ARM.Collect$$libinit$$0000000B
    libinit2.o(.ARM.Collect$$libinit$$00000010) refers to libinit2.o(.ARM.Collect$$libinit$$0000000B) for .ARM.Collect$$libinit$$0000000B
    libinit2.o(.ARM.Collect$$libinit$$00000012) refers to libinit2.o(.ARM.Collect$$libinit$$0000000B) for .ARM.Collect$$libinit$$0000000B
    libinit2.o(.ARM.Collect$$libinit$$00000014) refers to libinit2.o(.ARM.Collect$$libinit$$0000000B) for .ARM.Collect$$libinit$$0000000B
    libinit2.o(.ARM.Collect$$libinit$$00000022) refers to argv_veneer.o(.emb_text) for __ARM_argv_veneer
    libinit2.o(.ARM.Collect$$libinit$$00000023) refers to argv_veneer.o(.emb_text) for __ARM_argv_veneer
    sys_command.o(.text) refers (Special) to use_no_semi.o(.text) for __I$use$semihosting
    rt_raise.o(.text) refers to __raise.o(.text) for __raise
    rt_raise.o(.text) refers to sys_exit.o(.text) for _sys_exit
    term_alloc.o(.text) refers (Special) to libshutdown2.o(.ARM.Collect$$libshutdown$$0000000E) for __rt_lib_shutdown_heap_2
    term_alloc.o(.text) refers to rt_heap_descriptor.o(.text) for __rt_heap_descriptor
    term_alloc.o(.text) refers to h1_final.o(.text) for __Heap_Finalize
    defsig_exit.o(.text) refers to sys_exit.o(.text) for _sys_exit
    defsig_fpe_outer.o(.text) refers to defsig_fpe_inner.o(.text) for __rt_SIGFPE_inner
    defsig_fpe_outer.o(.text) refers to defsig_exit.o(.text) for __sig_exit
    defsig_fpe_formal.o(.text) refers to rt_raise.o(.text) for __rt_raise
    defsig_rtmem_inner.o(.text) refers to defsig_general.o(.text) for __default_signal_display
    argv_veneer.o(.emb_text) refers to _get_argv.o(.text) for __ARM_get_argv
    sys_exit.o(.text) refers (Special) to use_no_semi.o(.text) for __I$use$semihosting
    __raise.o(.text) refers to defsig.o(CL$$defsig) for __default_signal_handler
    defsig_general.o(.text) refers to sys_wrch.o(.text) for _ttywrch
    defsig_fpe_inner.o(.text) refers to defsig_general.o(.text) for __default_signal_display
    _get_argv_nomalloc.o(.text) refers (Special) to hrguard.o(.text) for __heap_region$guard
    _get_argv_nomalloc.o(.text) refers to defsig_rtmem_outer.o(.text) for __rt_SIGRTMEM
    _get_argv_nomalloc.o(.text) refers to sys_command.o(.text) for _sys_command_string
    libshutdown2.o(.ARM.Collect$$libshutdown$$0000000C) refers (Weak) to term_alloc.o(.text) for _terminate_alloc
    sys_wrch.o(.text) refers (Special) to use_no_semi.o(.text) for __I$use$semihosting
    defsig.o(CL$$defsig) refers to defsig_fpe_inner.o(.text) for __rt_SIGFPE_inner
    defsig.o(CL$$defsig) refers to defsig_rtmem_inner.o(.text) for __rt_SIGRTMEM_inner
    defsig_abrt_inner.o(.text) refers to defsig_general.o(.text) for __default_signal_display
    defsig_rtred_inner.o(.text) refers to defsig_general.o(.text) for __default_signal_display
    defsig_stak_inner.o(.text) refers to defsig_general.o(.text) for __default_signal_display
    defsig_pvfn_inner.o(.text) refers to defsig_general.o(.text) for __default_signal_display
    defsig_cppl_inner.o(.text) refers to defsig_general.o(.text) for __default_signal_display
    defsig_segv_inner.o(.text) refers to defsig_general.o(.text) for __default_signal_display
    defsig_other.o(.text) refers to defsig_general.o(.text) for __default_signal_display


==============================================================================

Image Symbol Table

    Local Symbols

    Symbol Name                              Value     Ov Type        Size  Object(Section)

    ../../angel/rt.s                         0x00000000   Number         0  rt_locale_intlibspace.o ABSOLUTE
    ../../angel/rt.s                         0x00000000   Number         0  aeabi_ldiv0_sigfpe.o ABSOLUTE
    ../../angel/rt.s                         0x00000000   Number         0  rt_heap_descriptor.o ABSOLUTE
    ../../angel/rt.s                         0x00000000   Number         0  aeabi_ldiv0.o ABSOLUTE
    ../../angel/rt.s                         0x00000000   Number         0  aeabi_idiv0_sigfpe.o ABSOLUTE
    ../../angel/rt.s                         0x00000000   Number         0  aeabi_idiv0.o ABSOLUTE
    ../../angel/rt.s                         0x00000000   Number         0  rt_locale.o ABSOLUTE
    ../../angel/rt.s                         0x00000000   Number         0  rt_div0.o ABSOLUTE
    ../../angel/rt.s                         0x00000000   Number         0  rt_raise.o ABSOLUTE
    ../../angel/rt.s                         0x00000000   Number         0  rt_heap_descriptor_intlibspace.o ABSOLUTE
    ../../angel/sys.s                        0x00000000   Number         0  mutex_dummy.o ABSOLUTE
    ../../angel/sys.s                        0x00000000   Number         0  libspace.o ABSOLUTE
    ../../angel/sys.s                        0x00000000   Number         0  use_no_semi.o ABSOLUTE
    ../../angel/sysapp.c                     0x00000000   Number         0  sys_wrch.o ABSOLUTE
    ../../angel/sysapp.c                     0x00000000   Number         0  sys_exit.o ABSOLUTE
    ../../angel/sysapp.c                     0x00000000   Number         0  sys_command.o ABSOLUTE
    ../../armsys.c                           0x00000000   Number         0  _get_argv_nomalloc.o ABSOLUTE
    ../../armsys.c                           0x00000000   Number         0  _get_argv.o ABSOLUTE
    ../../armsys.c                           0x00000000   Number         0  argv_veneer.o ABSOLUTE
    ../../armsys.c                           0x00000000   Number         0  no_argv.o ABSOLUTE
    ../../armsys.c                           0x00000000   Number         0  argv_veneer.o ABSOLUTE
    ../../division.s                         0x00000000   Number         0  aeabi_sdiv_rt_div0_cr4.o ABSOLUTE
    ../../division.s                         0x00000000   Number         0  aeabi_sdiv_div0_cr4.o ABSOLUTE
    ../../division.s                         0x00000000   Number         0  aeabi_sdiv_cr4.o ABSOLUTE
    ../../division.s                         0x00000000   Number         0  aeabi_sdiv_rt_cr4.o ABSOLUTE
    ../../heap1.c                            0x00000000   Number         0  h1_extend_mt.o ABSOLUTE
    ../../heap1.c                            0x00000000   Number         0  h1_init_mt.o ABSOLUTE
    ../../heap1.c                            0x00000000   Number         0  h1_extend.o ABSOLUTE
    ../../heap1.c                            0x00000000   Number         0  h1_init.o ABSOLUTE
    ../../heap1.c                            0x00000000   Number         0  h1_final.o ABSOLUTE
    ../../heap1.c                            0x00000000   Number         0  h1_alloc_mt.o ABSOLUTE
    ../../heap1.c                            0x00000000   Number         0  h1_alloc.o ABSOLUTE
    ../../heap1.c                            0x00000000   Number         0  h1_final_mt.o ABSOLUTE
    ../../heap1.c                            0x00000000   Number         0  h1_free.o ABSOLUTE
    ../../heap1.c                            0x00000000   Number         0  h1_free_mt.o ABSOLUTE
    ../../heap2.c                            0x00000000   Number         0  fdtree.o ABSOLUTE
    ../../heap2.c                            0x00000000   Number         0  heap2.o ABSOLUTE
    ../../heap2.c                            0x00000000   Number         0  heap2mt.o ABSOLUTE
    ../../heapalloc.c                        0x00000000   Number         0  hrguard.o ABSOLUTE
    ../../heapalloc.c                        0x00000000   Number         0  maybetermalloc2.o ABSOLUTE
    ../../heapalloc.c                        0x00000000   Number         0  term_alloc.o ABSOLUTE
    ../../heapalloc.c                        0x00000000   Number         0  heapstubs.o ABSOLUTE
    ../../heapalloc.c                        0x00000000   Number         0  maybetermalloc1.o ABSOLUTE
    ../../heapalloc.c                        0x00000000   Number         0  malloc.o ABSOLUTE
    ../../heapalloc.c                        0x00000000   Number         0  init_alloc.o ABSOLUTE
    ../../heapalloc.c                        0x00000000   Number         0  hguard.o ABSOLUTE
    ../../heapalloc.c                        0x00000000   Number         0  maybetermalloc1.o ABSOLUTE
    ../../heapalloc.c                        0x00000000   Number         0  maybetermalloc2.o ABSOLUTE
    ../../heapalloc.c                        0x00000000   Number         0  free.o ABSOLUTE
    ../../heapaux.c                          0x00000000   Number         0  heapauxa.o ABSOLUTE
    ../../heapaux.c                          0x00000000   Number         0  heapauxi.o ABSOLUTE
    ../../libinit.s                          0x00000000   Number         0  libshutdown2.o ABSOLUTE
    ../../libinit.s                          0x00000000   Number         0  libinit2.o ABSOLUTE
    ../../locale.c                           0x00000000   Number         0  locale_r.o ABSOLUTE
    ../../locale.c                           0x00000000   Number         0  locale.o ABSOLUTE
    ../../locale.s                           0x00000000   Number         0  null_locale.o ABSOLUTE
    ../../longlong.s                         0x00000000   Number         0  llshl.o ABSOLUTE
    ../../longlong.s                         0x00000000   Number         0  llushr.o ABSOLUTE
    ../../longlong.s                         0x00000000   Number         0  lludiv5.o ABSOLUTE
    ../../memcpset.s                         0x00000000   Number         0  rt_noneon_memcpy_w_ca9.o ABSOLUTE
    ../../memcpset.s                         0x00000000   Number         0  strcmp.o ABSOLUTE
    ../../memcpset.s                         0x00000000   Number         0  memcpy.o ABSOLUTE
    ../../memcpset.s                         0x00000000   Number         0  rt_neon_memclr_w.o ABSOLUTE
    ../../memcpset.s                         0x00000000   Number         0  rt_memclr.o ABSOLUTE
    ../../memcpset.s                         0x00000000   Number         0  memset.o ABSOLUTE
    ../../memcpset.s                         0x00000000   Number         0  rt_memcpy.o ABSOLUTE
    ../../signal.c                           0x00000000   Number         0  defsig_rtmem_formal.o ABSOLUTE
    ../../signal.c                           0x00000000   Number         0  __raise.o ABSOLUTE
    ../../signal.c                           0x00000000   Number         0  defsig_general.o ABSOLUTE
    ../../signal.c                           0x00000000   Number         0  defsig_rtmem_outer.o ABSOLUTE
    ../../signal.c                           0x00000000   Number         0  defsig_fpe_inner.o ABSOLUTE
    ../../signal.c                           0x00000000   Number         0  defsig_pvfn_inner.o ABSOLUTE
    ../../signal.c                           0x00000000   Number         0  defsig_abrt_inner.o ABSOLUTE
    ../../signal.c                           0x00000000   Number         0  defsig_exit.o ABSOLUTE
    ../../signal.c                           0x00000000   Number         0  defsig_rtred_inner.o ABSOLUTE
    ../../signal.c                           0x00000000   Number         0  defsig_stak_inner.o ABSOLUTE
    ../../signal.c                           0x00000000   Number         0  defsig_cppl_inner.o ABSOLUTE
    ../../signal.c                           0x00000000   Number         0  defsig_segv_inner.o ABSOLUTE
    ../../signal.c                           0x00000000   Number         0  defsig_fpe_outer.o ABSOLUTE
    ../../signal.c                           0x00000000   Number         0  defsig_fpe_formal.o ABSOLUTE
    ../../signal.c                           0x00000000   Number         0  defsig_rtmem_inner.o ABSOLUTE
    ../../signal.c                           0x00000000   Number         0  defsig_other.o ABSOLUTE
    ../../signal.s                           0x00000000   Number         0  defsig.o ABSOLUTE
    ../../string.c                           0x00000000   Number         0  strcpy.o ABSOLUTE
    ../../string.c                           0x00000000   Number         0  strlen.o ABSOLUTE
    ../../string.c                           0x00000000   Number         0  memcmp.o ABSOLUTE
    ../../unhosted.s                         0x00000000   Number         0  uread4.o ABSOLUTE
    ../../unhosted.s                         0x00000000   Number         0  uwrite4.o ABSOLUTE
    ./SRC/core/seccfg/ext_region.c           0x00000000   Number         0  ext_region.o ABSOLUTE
    ./SRC/core/seccfg/seccfg.c               0x00000000   Number         0  seccfg.o ABSOLUTE
    ./SRC/core/seccfg/seccfg_crypto.c        0x00000000   Number         0  seccfg_crypto.o ABSOLUTE
    ./SRC/core/seccfg/seccfg_dev.c           0x00000000   Number         0  seccfg_dev.o ABSOLUTE
    ./SRC/core/seccfg/seccfg_ver.c           0x00000000   Number         0  seccfg_ver.o ABSOLUTE
    ./SRC/core/seccfg/v1/sec_dl_v1.c         0x00000000   Number         0  sec_dl_v1.o ABSOLUTE
    ./SRC/core/seccfg/v1/sec_info_v1.c       0x00000000   Number         0  sec_info_v1.o ABSOLUTE
    ./SRC/core/seccfg/v3/sec_dl_v3.c         0x00000000   Number         0  sec_dl_v3.o ABSOLUTE
    ./SRC/core/seccfg/v3/sec_info_v3.c       0x00000000   Number         0  sec_info_v3.o ABSOLUTE
    ./SRC/core/secdl/sec_dl.c                0x00000000   Number         0  sec_dl.o ABSOLUTE
    ./SRC/core/secdl/sec_info.c              0x00000000   Number         0  sec_info.o ABSOLUTE
    ./SRC/core/secro/sec_secro.c             0x00000000   Number         0  sec_secro.o ABSOLUTE
    ./SRC/core/sej/sej_export.c              0x00000000   Number         0  sej_export.o ABSOLUTE
    ./SRC/core/sej/sej_hk.c                  0x00000000   Number         0  sej_hk.o ABSOLUTE
    ./SRC/core/sej/sej_sk.c                  0x00000000   Number         0  sej_sk.o ABSOLUTE
    ./SRC/core/util/sec_dev.c                0x00000000   Number         0  sec_dev.o ABSOLUTE
    ./SRC/core/util/sec_flashtool_cfg.c      0x00000000   Number         0  sec_flashtool_cfg.o ABSOLUTE
    ./SRC/core/util/sec_hdr.c                0x00000000   Number         0  sec_hdr.o ABSOLUTE
    ./SRC/core/util/sec_key.c                0x00000000   Number         0  sec_key.o ABSOLUTE
    ./SRC/core/util/sec_util.c               0x00000000   Number         0  sec_util.o ABSOLUTE
    ./SRC/crypto_lib/msha1.c                 0x00000000   Number         0  msha1.o ABSOLUTE
    ./SRC/legacy/get_fw_ver.c                0x00000000   Number         0  get_fw_ver.o ABSOLUTE
    ./SRC/legacy/md5.c                       0x00000000   Number         0  md5.o ABSOLUTE
    ./SRC/legacy/sb_encode.c                 0x00000000   Number         0  sb_encode.o ABSOLUTE
    ./SRC/legacy/security.c                  0x00000000   Number         0  security.o ABSOLUTE
    ./SRC/legacy/sha1_sw.c                   0x00000000   Number         0  sha1_sw.o ABSOLUTE
    ./custom/MT8127/common/nand/src/nand_drv_COMMON_v3_1.c 0x00000000   Number         0  nand_drv_COMMON_v3_1.o ABSOLUTE
    ./custom/MT8127/common/nand/src/nand_drv_COMMON_v4.c 0x00000000   Number         0  nand_drv_COMMON_v4.o ABSOLUTE
    ./custom/MT8127/common/nand/src/nand_drv_HYNIX.c 0x00000000   Number         0  nand_drv_HYNIX.o ABSOLUTE
    ./custom/MT8127/common/nand/src/nand_drv_KINGSTON.c 0x00000000   Number         0  nand_drv_KINGSTON.o ABSOLUTE
    ./custom/MT8127/common/nand/src/nand_drv_SAMSUNG.c 0x00000000   Number         0  nand_drv_SAMSUNG.o ABSOLUTE
    ./custom/MT8127/common/nand/src/nand_drv_ST.c 0x00000000   Number         0  nand_drv_ST.o ABSOLUTE
    ./custom/MT8127/common/nand/src/nand_drv_TOSHIBA.c 0x00000000   Number         0  nand_drv_TOSHIBA.o ABSOLUTE
    ./custom/MT8127/common/nand/src/nand_drv_superAND.c 0x00000000   Number         0  nand_drv_superAND.o ABSOLUTE
    ./custom/MT8127/src/BOOTARM.s            0x00000000   Number         0  BOOTARM.o ABSOLUTE
    ./custom/MT8127/src/BOOTARM_DRAM.s       0x00000000   Number         0  BOOTARM_DRAM.o ABSOLUTE
    ./custom/MT8127/src/nand_dev_tbl.c       0x00000000   Number         0  nand_dev_tbl.o ABSOLUTE
    ./custom/MT8127/src/regioninit_ads.s     0x00000000   Number         0  regioninit_ads.o ABSOLUTE
    ./platform/MT8127/emi/EMI.c              0x00000000   Number         0  EMI.o ABSOLUTE
    ./platform/MT8127/emi/dramc_calib.c      0x00000000   Number         0  dramc_calib.o ABSOLUTE
    ./platform/MT8127/emi/dramc_dle_cal.c    0x00000000   Number         0  dramc_dle_cal.o ABSOLUTE
    ./platform/MT8127/emi/dramc_dqs_gw.c     0x00000000   Number         0  dramc_dqs_gw.o ABSOLUTE
    ./platform/MT8127/main/BLOADER.C         0x00000000   Number         0  BLOADER.o ABSOLUTE
    ./platform/MT8127/main/cache.c           0x00000000   Number         0  cache.o ABSOLUTE
    ./platform/MT8127/main/da_init.c         0x00000000   Number         0  da_init.o ABSOLUTE
    ./platform/MT8127/main/download_bloader.c 0x00000000   Number         0  download_bloader.o ABSOLUTE
    ./platform/MT8127/main/efi.c             0x00000000   Number         0  efi.o ABSOLUTE
    ./platform/MT8127/main/flash_otp.c       0x00000000   Number         0  flash_otp.o ABSOLUTE
    ./platform/MT8127/main/hw_config.c       0x00000000   Number         0  hw_config.o ABSOLUTE
    ./platform/MT8127/main/kal_release.c     0x00000000   Number         0  kal_release.o ABSOLUTE
    ./platform/MT8127/main/main.c            0x00000000   Number         0  main.o ABSOLUTE
    ./platform/MT8127/main/platform.c        0x00000000   Number         0  platform.o ABSOLUTE
    ./platform/MT8127/main/rid.c             0x00000000   Number         0  rid.o ABSOLUTE
    ./platform/MT8127/main/rx_buffer.c       0x00000000   Number         0  rx_buffer.o ABSOLUTE
    ./platform/MT8127/misc/UART.C            0x00000000   Number         0  UART.o ABSOLUTE
    ./platform/MT8127/misc/assert.c          0x00000000   Number         0  assert.o ABSOLUTE
    ./platform/MT8127/misc/dummy.c           0x00000000   Number         0  dummy.o ABSOLUTE
    ./platform/MT8127/misc/logging.c         0x00000000   Number         0  logging.o ABSOLUTE
    ./platform/MT8127/misc/pmic_wrap_init.c  0x00000000   Number         0  pmic_wrap_init.o ABSOLUTE
    ./platform/MT8127/misc/rtc.c             0x00000000   Number         0  rtc.o ABSOLUTE
    ./platform/MT8127/misc/sal_pll.c         0x00000000   Number         0  sal_pll.o ABSOLUTE
    ./platform/MT8127/misc/xgpt.c            0x00000000   Number         0  xgpt.o ABSOLUTE
    ./platform/MT8127/mmc/blkdev.c           0x00000000   Number         0  blkdev.o ABSOLUTE
    ./platform/MT8127/mmc/mmc_core.c         0x00000000   Number         0  mmc_core.o ABSOLUTE
    ./platform/MT8127/mmc/msdc.c             0x00000000   Number         0  msdc.o ABSOLUTE
    ./platform/MT8127/mmc/msdc_cust.c        0x00000000   Number         0  msdc_cust.o ABSOLUTE
    ./platform/MT8127/mmc/msdc_utils.c       0x00000000   Number         0  msdc_utils.o ABSOLUTE
    ./platform/MT8127/mmc/sdmmc.c            0x00000000   Number         0  sdmmc.o ABSOLUTE
    ./platform/MT8127/mmc/sdmmc_download_internal.c 0x00000000   Number         0  sdmmc_download_internal.o ABSOLUTE
    ./platform/MT8127/mmc/sdmmc_handler.c    0x00000000   Number         0  sdmmc_handler.o ABSOLUTE
    ./platform/MT8127/nand/bmt.c             0x00000000   Number         0  bmt.o ABSOLUTE
    ./platform/MT8127/nand/main_nand.c       0x00000000   Number         0  main_nand.o ABSOLUTE
    ./platform/MT8127/nand/main_nand_internal.c 0x00000000   Number         0  main_nand_internal.o ABSOLUTE
    ./platform/MT8127/nand/nand_download_internal.c 0x00000000   Number         0  nand_download_internal.o ABSOLUTE
    ./platform/MT8127/nand/nand_util_func.c  0x00000000   Number         0  nand_util_func.o ABSOLUTE
    ./platform/MT8127/test/test_bus.c        0x00000000   Number         0  test_bus.o ABSOLUTE
    ./platform/MT8127/test/test_ext_sram.c   0x00000000   Number         0  test_ext_sram.o ABSOLUTE
    ./platform/MT8127/test/test_main.c       0x00000000   Number         0  test_main.o ABSOLUTE
    ./platform/MT8127/usb/dl_usb.c           0x00000000   Number         0  dl_usb.o ABSOLUTE
    ./platform/MT8127/usb/dl_usb_debug_tool.c 0x00000000   Number         0  dl_usb_debug_tool.o ABSOLUTE
    ./platform/MT8127/usb/dl_usb_drv.c       0x00000000   Number         0  dl_usb_drv.o ABSOLUTE
    ./platform/MT8127/usb/dl_usb_mode.c      0x00000000   Number         0  dl_usb_mode.o ABSOLUTE
    ./platform/MT8127/usb/dl_usb_resource.c  0x00000000   Number         0  dl_usb_resource.o ABSOLUTE
    ./platform/MT8127/usb/dl_usbacm_adap.c   0x00000000   Number         0  dl_usbacm_adap.o ABSOLUTE
    ./platform/MT8127/usb/dl_usbacm_drv.c    0x00000000   Number         0  dl_usbacm_drv.o ABSOLUTE
    ./platform/MT8127/usb/usbphy.c           0x00000000   Number         0  usbphy.o ABSOLUTE
    dc.s                                     0x00000000   Number         0  dc.o ABSOLUTE
    Init                                     0x80000000   Section       28  BOOTARM_DRAM.o(Init)
    .text                                    0x8000001c   Section        0  nand_drv_COMMON_v3_1.o(.text)
    mtk_nand_rren_rrtry                      0x80000a61   Thumb Code    46  nand_drv_COMMON_v3_1.o(.text)
    mtk_nand_rren_15nm_rrtry                 0x80000a8f   Thumb Code   146  nand_drv_COMMON_v3_1.o(.text)
    mtk_nand_sprmset_rrtry                   0x80000b21   Thumb Code   106  nand_drv_COMMON_v3_1.o(.text)
    mtk_nand_parapage_rrtry                  0x80000b8b   Thumb Code   188  nand_drv_COMMON_v3_1.o(.text)
    mtk_nand_parapage_15nm_rrtry             0x80000c47   Thumb Code   174  nand_drv_COMMON_v3_1.o(.text)
    mtk_nand_reset_fdm_ecc                   0x80000da1   Thumb Code   172  nand_drv_COMMON_v3_1.o(.text)
    mtk_nand_set_mode                        0x80003165   Thumb Code    14  nand_drv_COMMON_v3_1.o(.text)
    mtk_nand_set_command                     0x80003173   Thumb Code    12  nand_drv_COMMON_v3_1.o(.text)
    mtk_nand_status_ready                    0x8000317f   Thumb Code    28  nand_drv_COMMON_v3_1.o(.text)
    mtk_nand_modeentry_rrtry                 0x8000319b   Thumb Code    34  nand_drv_COMMON_v3_1.o(.text)
    .text                                    0x800031cc   Section        0  nand_drv_SAMSUNG.o(.text)
    .text                                    0x800031e8   Section        0  nand_drv_ST.o(.text)
    .text                                    0x80003204   Section        0  nand_drv_superAND.o(.text)
    .text                                    0x8000322c   Section        0  da_init.o(.text)
    .text                                    0x80003494   Section        0  hw_config.o(.text)
    .text                                    0x80003e64   Section        0  main.o(.text)
    .text                                    0x80003e84   Section        0  logging.o(.text)
    outNumHex                                0x80003ea5   Thumb Code    44  logging.o(.text)
    outNumDecimal                            0x80004091   Thumb Code    30  logging.o(.text)
    .text                                    0x80004120   Section        0  xgpt.o(.text)
    get_timer_masked                         0x800041bf   Thumb Code    48  xgpt.o(.text)
    reset_timer_masked                       0x800042c9   Thumb Code    20  xgpt.o(.text)
    .text                                    0x800042f4   Section        0  main_nand.o(.text)
    compute_fs_checksum                      0x800046d5   Thumb Code   478  main_nand.o(.text)
    is_empty_page                            0x800048b3   Thumb Code    66  main_nand.o(.text)
    return_fake_buf                          0x800048f5   Thumb Code    96  main_nand.o(.text)
    compute_image_checksum_ftl               0x80004955   Thumb Code  1170  main_nand.o(.text)
    compute_image_checksum                   0x80004de7   Thumb Code  1380  main_nand.o(.text)
    verify_image_checksum                    0x8000534b   Thumb Code   640  main_nand.o(.text)
    NMAIN_WriteSparseData_internal           0x800063a5   Thumb Code  1712  main_nand.o(.text)
    dump_dl_info                             0x80008d3f   Thumb Code   368  main_nand.o(.text)
    .text                                    0x800093e4   Section        0  nand_util_func.o(.text)
    NFI_GPIO_SET_FIELD                       0x800093e5   Thumb Code    66  nand_util_func.o(.text)
    NFI_set_gpio_mode                        0x80009427   Thumb Code    42  nand_util_func.o(.text)
    .text                                    0x8000b798   Section        0  nand_util_func.o(.text)
    .text                                    0x8000b830   Section        0  nand_util_func.o(.text)
    .text                                    0x8000b89c   Section        0  nand_util_func.o(.text)
    .text                                    0x8000b97c   Section        0  BLOADER.o(.text)
    NAND_WriteData                           0x8000bbbd   Thumb Code   928  BLOADER.o(.text)
    CalculateImageChksum                     0x8000c919   Thumb Code   336  BLOADER.o(.text)
    .text                                    0x8000d240   Section        0  EMI.o(.text)
    init_lpddr2                              0x8000d241   Thumb Code  1358  EMI.o(.text)
    init_ddr3                                0x8000d78f   Thumb Code  1858  EMI.o(.text)
    init_lpddr3                              0x8000ded1   Thumb Code  1350  EMI.o(.text)
    board_id_read                            0x8000fd15   Thumb Code   146  EMI.o(.text)
    .text                                    0x8000fe00   Section        0  cache.o(.text)
    MTK_EnableL1Cache                        0x8000fe01   Thumb Code    60  cache.o(.text)
    .text                                    0x8000fe64   Section        0  download_bloader.o(.text)
    Download_BL_GetBootRegionStartAddr       0x8000febd   Thumb Code    48  download_bloader.o(.text)
    .text                                    0x800105b4   Section        0  flash_otp.o(.text)
    .text                                    0x800107dc   Section        0  kal_release.o(.text)
    .text                                    0x80010894   Section        0  platform.o(.text)
    SAL_PMIC_HW_Reset_Enable                 0x800109dd   Thumb Code   168  platform.o(.text)
    .text                                    0x80010f50   Section        0  rid.o(.text)
    .text                                    0x80010f88   Section        0  assert.o(.text)
    .text                                    0x800110c8   Section        0  sal_pll.o(.text)
    .text                                    0x800118ac   Section        0  blkdev.o(.text)
    .text                                    0x80011e30   Section        0  sdmmc.o(.text)
    SDMMC_Return                             0x80011e73   Thumb Code    38  sdmmc.o(.text)
    sdmmc_switch_part                        0x80011e99   Thumb Code   142  sdmmc.o(.text)
    sdmmc_addr_trans_tbl_init                0x80011f35   Thumb Code   378  sdmmc.o(.text)
    sdmmc_bread                              0x800120df   Thumb Code    20  sdmmc.o(.text)
    sdmmc_bwrite                             0x80012123   Thumb Code    20  sdmmc.o(.text)
    sdmmc_bread_part                         0x8001217f   Thumb Code    26  sdmmc.o(.text)
    sdmmc_bwrite_part                        0x800121cd   Thumb Code    26  sdmmc.o(.text)
    .text                                    0x80013344   Section        0  sdmmc.o(.text)
    .text                                    0x800133fc   Section        0  sdmmc.o(.text)
    .text                                    0x800134e0   Section        0  sdmmc_handler.o(.text)
    SDMMC_WriteSparseData_internal           0x80013635   Thumb Code  1072  sdmmc_handler.o(.text)
    SDMMC_WriteDataHandler                   0x80013a65   Thumb Code   642  sdmmc_handler.o(.text)
    dump_dl_info                             0x80014c0d   Thumb Code   148  sdmmc_handler.o(.text)
    .text                                    0x80014eac   Section        0  bmt.o(.text)
    valid_bmt_data                           0x80015071   Thumb Code    98  bmt.o(.text)
    fill_nand_bmt_buffer                     0x800150d3   Thumb Code   138  bmt.o(.text)
    load_bmt_data                            0x8001515d   Thumb Code   296  bmt.o(.text)
    find_available_block                     0x80015285   Thumb Code  1096  bmt.o(.text)
    write_bmt_to_flash                       0x800156ff   Thumb Code   204  bmt.o(.text)
    migrate_from_bad                         0x8001587d   Thumb Code   982  bmt.o(.text)
    dump_bmt_info                            0x800180a1   Thumb Code    16  bmt.o(.text)
    cal_bmt_checksum                         0x800180b1   Thumb Code    34  bmt.o(.text)
    is_block_mapped                          0x800180d3   Thumb Code    36  bmt.o(.text)
    .text                                    0x80018264   Section        0  main_nand_internal.o(.text)
    .text                                    0x80019218   Section        0  test_main.o(.text)
    .text                                    0x800199d4   Section        0  dl_usb.o(.text)
    USB_Initialize                           0x80019ac7   Thumb Code   216  dl_usb.o(.text)
    USB_Cmd_SetFeature                       0x80019b9f   Thumb Code    80  dl_usb.o(.text)
    USB_Stdcmd                               0x80019bef   Thumb Code   300  dl_usb.o(.text)
    USB_Endpoint0_Idle                       0x80019d1b   Thumb Code   130  dl_usb.o(.text)
    USB_Endpoint0_Hdlr                       0x80019d9d   Thumb Code   204  dl_usb.o(.text)
    USB_Reset                                0x80019e69   Thumb Code   122  dl_usb.o(.text)
    USB_Endpoint0_Tx                         0x80019f31   Thumb Code    78  dl_usb.o(.text)
    USB_Cmd_GetStatus                        0x80019f7f   Thumb Code    92  dl_usb.o(.text)
    USB_Cmd_GetDescriptor                    0x80019fdb   Thumb Code   110  dl_usb.o(.text)
    .text                                    0x8001a058   Section        0  dl_usb_drv.o(.text)
    .text                                    0x8001a5dc   Section        0  dl_usbacm_adap.o(.text)
    .text                                    0x8001ab28   Section        0  UART.o(.text)
    .text                                    0x8001af44   Section        0  get_fw_ver.o(.text)
    idma_load_cm                             0x8001af45   Thumb Code    72  get_fw_ver.o(.text)
    .text                                    0x8001b014   Section        0  sb_encode.o(.text)
    .text                                    0x8001b48c   Section        0  security.o(.text)
    FindRomInfoFromNAND                      0x8001b657   Thumb Code   178  security.o(.text)
    FindInfoFromNAND                         0x8001b925   Thumb Code   196  security.o(.text)
    SearchAndroidRomInfo                     0x8001b9e9   Thumb Code   328  security.o(.text)
    SearchSecCfg                             0x8001bb31   Thumb Code   124  security.o(.text)
    ReadLoadInfo                             0x8001c4bb   Thumb Code   978  security.o(.text)
    NFB_OverlapWithCodeRange                 0x8001cdcb   Thumb Code    20  security.o(.text)
    NFB_OverlapWithSECRORange                0x8001cddf   Thumb Code    46  security.o(.text)
    NFB_OverlapWithFlashToolCfgRange         0x8001ce0d   Thumb Code    46  security.o(.text)
    NFB_OverlapWithFATRange                  0x8001ce3b   Thumb Code    72  security.o(.text)
    FindAndroidRomInfo                       0x8001d287   Thumb Code   114  security.o(.text)
    NFB_RangesOverlapped                     0x8001d2f9   Thumb Code    16  security.o(.text)
    .text                                    0x8001d3dc   Section        0  sec_secro.o(.text)
    sec_pre_load_secro                       0x8001d5e1   Thumb Code    64  sec_secro.o(.text)
    .text                                    0x8001e4d4   Section        0  sec_flashtool_cfg.o(.text)
    .text                                    0x8001e67c   Section        0  dramc_calib.o(.text)
    calib_clk_output_dly_factor_handler      0x8001ead1   Thumb Code    44  dramc_calib.o(.text)
    calib_cmd_addr_output_dly_factor_handler 0x8001eafd   Thumb Code   258  dramc_calib.o(.text)
    .text                                    0x8001f7b0   Section        0  efi.o(.text)
    efi_crc32                                0x8001f7b1   Thumb Code    90  efi.o(.text)
    param_valid                              0x8001f885   Thumb Code   194  efi.o(.text)
    pack_entries_data                        0x8001f947   Thumb Code   214  efi.o(.text)
    parse_gpt_header                         0x8001fae7   Thumb Code  1126  efi.o(.text)
    last_lba                                 0x8001ffa5   Thumb Code    22  efi.o(.text)
    write_pmbr_data                          0x8001ffbb   Thumb Code    60  efi.o(.text)
    pack_pheader_data                        0x8001fff7   Thumb Code   284  efi.o(.text)
    write_pheader_data                       0x80020113   Thumb Code    60  efi.o(.text)
    pack_sheader_data                        0x8002014f   Thumb Code   792  efi.o(.text)
    write_sheader_data                       0x80020467   Thumb Code    70  efi.o(.text)
    write_pentries_data                      0x800204ad   Thumb Code    92  efi.o(.text)
    write_sentries_data                      0x80020509   Thumb Code   112  efi.o(.text)
    read_data                                0x80020579   Thumb Code    24  efi.o(.text)
    get_first_usable_lba                     0x80020591   Thumb Code     8  efi.o(.text)
    get_last_usable_lba                      0x80020599   Thumb Code     8  efi.o(.text)
    .text                                    0x80020634   Section        0  dummy.o(.text)
    .text                                    0x80020638   Section        0  pmic_wrap_init.o(.text)
    wait_for_fsm_idle                        0x80020639   Thumb Code    10  pmic_wrap_init.o(.text)
    wait_for_fsm_vldclr                      0x80020643   Thumb Code    16  pmic_wrap_init.o(.text)
    wait_for_sync                            0x80020653   Thumb Code     8  pmic_wrap_init.o(.text)
    wait_for_idle_and_sync                   0x8002065b   Thumb Code    20  pmic_wrap_init.o(.text)
    wait_for_cipher_ready                    0x8002066f   Thumb Code    12  pmic_wrap_init.o(.text)
    wait_for_state_ready_init                0x8002067b   Thumb Code    38  pmic_wrap_init.o(.text)
    wait_for_state_idle_init                 0x800206a1   Thumb Code    92  pmic_wrap_init.o(.text)
    wait_for_state_idle                      0x800206fd   Thumb Code   106  pmic_wrap_init.o(.text)
    _pwrap_wacs2_nochk                       0x8002083d   Thumb Code   170  pmic_wrap_init.o(.text)
    _pwrap_init_dio                          0x800208e7   Thumb Code   134  pmic_wrap_init.o(.text)
    _pwrap_init_cipher                       0x8002096d   Thumb Code   916  pmic_wrap_init.o(.text)
    _pwrap_init_sistrobe                     0x80020d01   Thumb Code   232  pmic_wrap_init.o(.text)
    _pwrap_init_reg_clock                    0x80020de9   Thumb Code   230  pmic_wrap_init.o(.text)
    _pwrap_time2ns                           0x8002121f   Thumb Code     6  pmic_wrap_init.o(.text)
    wait_for_state_ready                     0x80021225   Thumb Code    58  pmic_wrap_init.o(.text)
    pwrap_read_nochk                         0x8002125f   Thumb Code    12  pmic_wrap_init.o(.text)
    pwrap_write_nochk                        0x8002126b   Thumb Code    12  pmic_wrap_init.o(.text)
    _pwrap_reset_spislv                      0x80021277   Thumb Code    90  pmic_wrap_init.o(.text)
    .text                                    0x80021414   Section        0  rtc.o(.text)
    rtc_busy_wait                            0x80021415   Thumb Code    56  rtc.o(.text)
    Writeif_unlock                           0x8002144d   Thumb Code    52  rtc.o(.text)
    rtc_set_poweroff_sequence                0x80021481   Thumb Code   114  rtc.o(.text)
    RTC_Read                                 0x800215a9   Thumb Code    18  rtc.o(.text)
    RTC_Write                                0x800215bb   Thumb Code     4  rtc.o(.text)
    Write_trigger                            0x800215bf   Thumb Code    28  rtc.o(.text)
    .text                                    0x800217b4   Section        0  mmc_core.o(.text)
    mmc_app_cmd                              0x800227a9   Thumb Code    60  mmc_core.o(.text)
    mmc_send_if_cond                         0x80022831   Thumb Code    62  mmc_core.o(.text)
    mmc_send_op_cond                         0x8002286f   Thumb Code    80  mmc_core.o(.text)
    mmc_send_app_op_cond                     0x800228bf   Thumb Code    80  mmc_core.o(.text)
    mmc_all_send_cid                         0x8002290f   Thumb Code    52  mmc_core.o(.text)
    mmc_decode_cid                           0x80022943   Thumb Code   504  mmc_core.o(.text)
    mmc_decode_csd                           0x80022b3b   Thumb Code  1044  mmc_core.o(.text)
    mmc_decode_ext_csd                       0x80022f4f   Thumb Code   428  mmc_core.o(.text)
    mmc_sd_switch                            0x8002319f   Thumb Code   324  mmc_core.o(.text)
    mmc_read_scrs                            0x8002332b   Thumb Code   352  mmc_core.o(.text)
    mmc_dev_bwrite                           0x80023ccd   Thumb Code   198  mmc_core.o(.text)
    unstuff_bits                             0x80024637   Thumb Code    60  mmc_core.o(.text)
    mmc_cmd                                  0x80024673   Thumb Code   478  mmc_core.o(.text)
    mmc_select_voltage                       0x80024851   Thumb Code    30  mmc_core.o(.text)
    mmc_read_switch                          0x8002486f   Thumb Code   110  mmc_core.o(.text)
    .text                                    0x80024938   Section        0  sdmmc_download_internal.o(.text)
    .text                                    0x80024d5c   Section        0  nand_download_internal.o(.text)
    NAND_Download_BL_CreateDeviceHeader      0x8002508d   Thumb Code   336  nand_download_internal.o(.text)
    NAND_Download_BL_WriteHeaderBlock        0x800251dd   Thumb Code   854  nand_download_internal.o(.text)
    .text                                    0x80025fa8   Section        0  test_bus.o(.text)
    .text                                    0x8002617c   Section        0  test_ext_sram.o(.text)
    .text                                    0x80026848   Section        0  dl_usb_debug_tool.o(.text)
    .text                                    0x8002684c   Section        0  dl_usb_mode.o(.text)
    .text                                    0x800268ec   Section        0  dl_usb_resource.o(.text)
    .text                                    0x80026e9c   Section        0  dl_usbacm_drv.o(.text)
    USB_Acm_Ep0_SetLineCoding                0x80026e9d   Thumb Code    44  dl_usbacm_drv.o(.text)
    USB_Acm_Ep0_Command                      0x80026ec9   Thumb Code   186  dl_usbacm_drv.o(.text)
    USB_Acm_BulkOut_Reset                    0x80027075   Thumb Code    12  dl_usbacm_drv.o(.text)
    USB_Acm_BulkOut_Hdr                      0x80027081   Thumb Code    66  dl_usbacm_drv.o(.text)
    USB_Acm_BulkIn_Reset                     0x800270c3   Thumb Code    12  dl_usbacm_drv.o(.text)
    USB_Acm_BulkIn_Hdr                       0x800270cf   Thumb Code     8  dl_usbacm_drv.o(.text)
    .text                                    0x800272b8   Section        0  usbphy.o(.text)
    .text                                    0x80027418   Section        0  md5.o(.text)
    MD5Transform                             0x80027435   Thumb Code  1688  md5.o(.text)
    Encode                                   0x80027b3d   Thumb Code    50  md5.o(.text)
    MD5_memcpy                               0x80027bbb   Thumb Code    18  md5.o(.text)
    MD5_memset                               0x80027bcd   Thumb Code    16  md5.o(.text)
    .text                                    0x80027c44   Section        0  msha1.o(.text)
    hash_process                             0x80027ceb   Thumb Code   722  msha1.o(.text)
    .text                                    0x800280ec   Section        0  sec_dl.o(.text)
    .text                                    0x80028238   Section        0  sec_info.o(.text)
    .text                                    0x800282cc   Section        0  seccfg.o(.text)
    .text                                    0x800284a8   Section        0  seccfg_ver.o(.text)
    .text                                    0x80028510   Section        0  seccfg_crypto.o(.text)
    .text                                    0x8002864c   Section        0  sec_dev.o(.text)
    .text                                    0x80028e04   Section        0  sec_key.o(.text)
    .text                                    0x80028e24   Section        0  sec_util.o(.text)
    .text                                    0x80028eac   Section        0  sec_hdr.o(.text)
    .text                                    0x80029118   Section        0  sej_hk.o(.text)
    .text                                    0x80029248   Section        0  sej_export.o(.text)
    .text                                    0x800293a8   Section        0  sha1_sw.o(.text)
    .text                                    0x80029768   Section        0  dramc_dle_cal.o(.text)
    .text                                    0x80029ac0   Section        0  dramc_dqs_gw.o(.text)
    __ett_print_dqs_gw_result                0x8002a315   Thumb Code   376  dramc_dqs_gw.o(.text)
    ett_print_dqs_gw_result_1                0x8002a48d   Thumb Code     6  dramc_dqs_gw.o(.text)
    __do_dqs_gw_calib                        0x8002a4a5   Thumb Code   446  dramc_dqs_gw.o(.text)
    nr_bit_set                               0x8002a699   Thumb Code    28  dramc_dqs_gw.o(.text)
    .text                                    0x8002a748   Section        0  msdc.o(.text)
    msdc_pin_pud                             0x8002a749   Thumb Code  1008  msdc.o(.text)
    msdc_get_card_status                     0x8002b45f   Thumb Code    48  msdc.o(.text)
    msdc_pin_pnul                            0x8002cb2b   Thumb Code   182  msdc.o(.text)
    msdc_set_smt                             0x8002cbe1   Thumb Code   174  msdc.o(.text)
    msdc_set_driving                         0x8002cc8f   Thumb Code   182  msdc.o(.text)
    .text                                    0x8002cd5c   Section        0  msdc_utils.o(.text)
    .text                                    0x8002cde8   Section        0  sec_dl_v1.o(.text)
    .text                                    0x8002d25c   Section        0  sec_info_v1.o(.text)
    .text                                    0x8002d4ec   Section        0  sec_dl_v3.o(.text)
    .text                                    0x8002db88   Section        0  sec_info_v3.o(.text)
    .text                                    0x8002df60   Section        0  sej_sk.o(.text)
    .text                                    0x8002e17c   Section        0  ext_region.o(.text)
    .text                                    0x8002e5f4   Section        0  seccfg_dev.o(.text)
    .text                                    0x8002ea84   Section        0  h1_free.o(.text)
    .text                                    0x8002ead8   Section      816  lludiv5.o(.text)
    .text                                    0x8002ee08   Section       38  llshl.o(.text)
    .text                                    0x8002ee2e   Section       38  llushr.o(.text)
    .text                                    0x8002ee54   Section        0  locale.o(.text)
    .text                                    0x8002ee64   Section        0  memcmp.o(.text)
    .text                                    0x8002eeb2   Section        0  strcpy.o(.text)
    .text                                    0x8002eef8   Section        0  strlen.o(.text)
    .text                                    0x8002ef38   Section       12  memcpy.o(.text)
    .text                                    0x8002ef44   Section      212  rt_memcpy.o(.text)
    .text                                    0x8002f018   Section       22  memset.o(.text)
    .text                                    0x8002f030   Section       80  rt_neon_memclr_w.o(.text)
    $v0                                      0x8002f030   Number         0  rt_neon_memclr_w.o(.text)
    .text                                    0x8002f080   Section      124  rt_noneon_memcpy_w_ca9.o(.text)
    $v0                                      0x8002f080   Number         0  rt_noneon_memcpy_w_ca9.o(.text)
    .text                                    0x8002f0fc   Section      160  strcmp.o(.text)
    .text                                    0x8002f19c   Section       22  uread4.o(.text)
    .text                                    0x8002f1b2   Section       22  uwrite4.o(.text)
    .text                                    0x8002f1c8   Section       12  rt_heap_descriptor.o(.text)
    .text                                    0x8002f1d4   Section        0  locale_r.o(.text)
    _locale_name                             0x8002f1d5   Thumb Code   158  locale_r.o(.text)
    _set_locale_byname                       0x8002f2df   Thumb Code   152  locale_r.o(.text)
    .text                                    0x8002f380   Section       68  rt_memclr.o(.text)
    .text                                    0x8002f3c4   Section       12  rt_locale.o(.text)
    Init                                     0x8002f3d0   Section      212  BOOTARM.o(Init)
    MT6223_SB                                0x8002f4a4   Section        0  sb_encode.o(MT6223_SB)
    SearchRomInfo                            0x8002f4a5   Thumb Code   126  sb_encode.o(MT6223_SB)
    SearchSecInfo                            0x8002f85b   Thumb Code   134  sb_encode.o(MT6223_SB)
    SearchFotaInfo                           0x8002f8e1   Thumb Code    80  sb_encode.o(MT6223_SB)
    SearchUAInfo                             0x8002f931   Thumb Code    76  sb_encode.o(MT6223_SB)
    GetChecksum                              0x8002f97d   Thumb Code    24  sb_encode.o(MT6223_SB)
    SYMBOLINIT                               0x8002f9a0   Section        0  BLOADER.o(SYMBOLINIT)
    x$sdivmod                                0x8002fa50   Section       12  aeabi_sdiv_cr4.o(x$sdivmod)
    x$udivmod                                0x8002fa5c   Section       12  aeabi_sdiv_cr4.o(x$udivmod)
    .constdata                               0x8002fa68   Section       68  nand_drv_COMMON_v3_1.o(.constdata)
    .constdata                               0x8002faac   Section      331  nand_drv_COMMON_v3_1.o(.constdata)
    __FUNCTION__                             0x8002fb33   Data          29  nand_drv_COMMON_v3_1.o(.constdata)
    __FUNCTION__                             0x8002fb50   Data          27  nand_drv_COMMON_v3_1.o(.constdata)
    .constdata                               0x8002fbf8   Section       56  nand_drv_HYNIX.o(.constdata)
    .constdata                               0x8002fc30   Section       56  nand_drv_HYNIX.o(.constdata)
    .constdata                               0x8002fc68   Section       56  nand_drv_KINGSTON.o(.constdata)
    .constdata                               0x8002fca0   Section       56  nand_drv_SAMSUNG.o(.constdata)
    .constdata                               0x8002fcd8   Section       56  nand_drv_SAMSUNG.o(.constdata)
    .constdata                               0x8002fd10   Section       24  nand_drv_SAMSUNG.o(.constdata)
    .constdata                               0x8002fd28   Section       52  nand_drv_SAMSUNG.o(.constdata)
    .constdata                               0x8002fd5c   Section       56  nand_drv_ST.o(.constdata)
    .constdata                               0x8002fd94   Section       56  nand_drv_ST.o(.constdata)
    .constdata                               0x8002fdcc   Section       68  nand_drv_ST.o(.constdata)
    .constdata                               0x8002fe10   Section       56  nand_drv_TOSHIBA.o(.constdata)
    .constdata                               0x8002fe48   Section       56  nand_drv_TOSHIBA.o(.constdata)
    .constdata                               0x8002fe80   Section       56  nand_drv_superAND.o(.constdata)
    .constdata                               0x8002feb8   Section       56  nand_drv_superAND.o(.constdata)
    .constdata                               0x8002fef0   Section       68  nand_drv_superAND.o(.constdata)
    .constdata                               0x8002ff34   Section      224  hw_config.o(.constdata)
    g_EMI_Cfg_MT8127                         0x8002ff34   Data         224  hw_config.o(.constdata)
    .constdata                               0x80030014   Section        2  hw_config.o(.constdata)
    g_RGU_Cfg_MT8127                         0x80030014   Data           2  hw_config.o(.constdata)
    .constdata                               0x80030016   Section        1  hw_config.o(.constdata)
    g_NFI_Cfg_MT8127                         0x80030016   Data           1  hw_config.o(.constdata)
    .constdata                               0x80030018   Section       16  hw_config.o(.constdata)
    g_CLK_Cfg_MT8127                         0x80030018   Data          16  hw_config.o(.constdata)
    .constdata                               0x80030028   Section      184  hw_config.o(.constdata)
    g_HW_BB_Cfg                              0x80030028   Data         112  hw_config.o(.constdata)
    .constdata                               0x800300e0   Section        7  logging.o(.constdata)
    .constdata                               0x800300e8   Section      817  main_nand.o(.constdata)
    __FUNCTION__                             0x800300e8   Data          27  main_nand.o(.constdata)
    __FUNCTION__                             0x80030103   Data          23  main_nand.o(.constdata)
    __func__                                 0x8003011a   Data          25  main_nand.o(.constdata)
    __FUNCTION__                             0x80030133   Data          24  main_nand.o(.constdata)
    .constdata                               0x80030419   Section       23  nand_util_func.o(.constdata)
    __FUNCTION__                             0x80030419   Data          23  nand_util_func.o(.constdata)
    .constdata                               0x80030430   Section      152  BLOADER.o(.constdata)
    .constdata                               0x800304c8   Section      474  EMI.o(.constdata)
    __func__                                 0x800304c8   Data          30  EMI.o(.constdata)
    __func__                                 0x800304e6   Data          25  EMI.o(.constdata)
    __func__                                 0x800304ff   Data          26  EMI.o(.constdata)
    __func__                                 0x80030519   Data          18  EMI.o(.constdata)
    .constdata                               0x800306a4   Section      111  platform.o(.constdata)
    __FUNCTION__                             0x800306a4   Data          24  platform.o(.constdata)
    __FUNCTION__                             0x800306bc   Data           9  platform.o(.constdata)
    .constdata                               0x80030713   Section       14  sal_pll.o(.constdata)
    __FUNCTION__                             0x80030713   Data          14  sal_pll.o(.constdata)
    .constdata                               0x80030724   Section      155  sdmmc.o(.constdata)
    __func__                                 0x80030724   Data          17  sdmmc.o(.constdata)
    __func__                                 0x80030735   Data          20  sdmmc.o(.constdata)
    __func__                                 0x80030749   Data          17  sdmmc.o(.constdata)
    __func__                                 0x8003075a   Data          28  sdmmc.o(.constdata)
    .constdata                               0x800307c0   Section      432  sdmmc_handler.o(.constdata)
    .constdata                               0x80030970   Section      135  bmt.o(.constdata)
    __func__                                 0x80030970   Data          22  bmt.o(.constdata)
    __func__                                 0x80030986   Data          24  bmt.o(.constdata)
    __FUNCTION__                             0x8003099e   Data          20  bmt.o(.constdata)
    .constdata                               0x800309f8   Section      280  main_nand_internal.o(.constdata)
    .constdata                               0x80030b10   Section       40  get_fw_ver.o(.constdata)
    get_ver_array_patch                      0x80030b10   Data          40  get_fw_ver.o(.constdata)
    .constdata                               0x80030b38   Section       68  security.o(.constdata)
    .constdata                               0x80030b7c   Section       74  sec_secro.o(.constdata)
    .constdata                               0x80030bc8   Section       66  efi.o(.constdata)
    .constdata                               0x80030c0c   Section     1231  pmic_wrap_init.o(.constdata)
    __FUNCTION__                             0x80030c0c   Data          22  pmic_wrap_init.o(.constdata)
    __FUNCTION__                             0x80030c22   Data          11  pmic_wrap_init.o(.constdata)
    __FUNCTION__                             0x80030c2d   Data          14  pmic_wrap_init.o(.constdata)
    .constdata                               0x800310dc   Section      552  mmc_core.o(.constdata)
    tran_exp                                 0x800310dc   Data          32  mmc_core.o(.constdata)
    tran_mant                                0x800310fc   Data          16  mmc_core.o(.constdata)
    mmc_tran_mant                            0x8003110c   Data          16  mmc_core.o(.constdata)
    tacc_exp                                 0x8003111c   Data          32  mmc_core.o(.constdata)
    tacc_mant                                0x8003113c   Data          64  mmc_core.o(.constdata)
    __func__                                 0x80031194   Data          10  mmc_core.o(.constdata)
    __func__                                 0x8003119e   Data          15  mmc_core.o(.constdata)
    __func__                                 0x800311ad   Data          16  mmc_core.o(.constdata)
    __func__                                 0x800311bd   Data          16  mmc_core.o(.constdata)
    .constdata                               0x80031304   Section        4  dl_usb_resource.o(.constdata)
    USB_Language_String                      0x80031304   Data           4  dl_usb_resource.o(.constdata)
    .constdata                               0x80031308   Section       64  msha1.o(.constdata)
    padding                                  0x80031308   Data          64  msha1.o(.constdata)
    .constdata                               0x80031348   Section       32  sej_hk.o(.constdata)
    .constdata                               0x80031368   Section       80  sej_hk.o(.constdata)
    g_AC_BOOTROM_IV                          0x80031368   Data          32  sej_hk.o(.constdata)
    g_AC_FIXED_PATTERN                       0x80031388   Data          48  sej_hk.o(.constdata)
    .constdata                               0x800313b8   Section      190  dramc_dle_cal.o(.constdata)
    .constdata                               0x80031478   Section      176  dramc_dqs_gw.o(.constdata)
    .constdata                               0x80031528   Section       91  msdc.o(.constdata)
    .conststring                             0x80031583   Section       30  mmc_core.o(.conststring)
    .conststring                             0x800315a1   Section       10  dramc_dle_cal.o(.conststring)
    .conststring                             0x800315ab   Section      145  dramc_dqs_gw.o(.conststring)
    NAND_FLASH_TABLE                         0x80031640   Section    12096  nand_dev_tbl.o(NAND_FLASH_TABLE)
    locale$$data                             0x80034580   Section       16  null_locale.o(locale$$data)
    .data                                    0x80034590   Section      308  nand_drv_COMMON_v3_1.o(.data)
    SS_RANDOM_SEED                           0x800345c4   Data         256  nand_drv_COMMON_v3_1.o(.data)
    .data                                    0x800346c4   Section        4  nand_drv_COMMON_v3_1.o(.data)
    .data                                    0x800346c8   Section     1212  nand_dev_tbl.o(.data)
    .data                                    0x80034b84   Section     1212  nand_dev_tbl.o(.data)
    .data                                    0x80035040   Section     1212  nand_dev_tbl.o(.data)
    .data                                    0x800354fc   Section     1212  nand_dev_tbl.o(.data)
    .data                                    0x800359b8   Section     1212  nand_dev_tbl.o(.data)
    .data                                    0x80035e74   Section     1212  nand_dev_tbl.o(.data)
    .data                                    0x80036330   Section     1212  nand_dev_tbl.o(.data)
    .data                                    0x800367ec   Section     1212  nand_dev_tbl.o(.data)
    .data                                    0x80036ca8   Section       40  nand_dev_tbl.o(.data)
    .data                                    0x80036cd0   Section       40  nand_dev_tbl.o(.data)
    .data                                    0x80036cf8   Section       12  hw_config.o(.data)
    .data                                    0x80036d04   Section        4  hw_config.o(.data)
    .data                                    0x80036d08   Section        4  hw_config.o(.data)
    .data                                    0x80036d0c   Section        4  hw_config.o(.data)
    .data                                    0x80036d10   Section        4  hw_config.o(.data)
    .data                                    0x80036d14   Section        4  hw_config.o(.data)
    .data                                    0x80036d18   Section        4  hw_config.o(.data)
    .data                                    0x80036d1c   Section        8  logging.o(.data)
    g_CurrentLoggingLevel                    0x80036d1c   Data           1  logging.o(.data)
    g_uart_port                              0x80036d1d   Data           1  logging.o(.data)
    bEnableDebug                             0x80036d1e   Data           1  logging.o(.data)
    g_uart_log                               0x80036d20   Data           4  logging.o(.data)
    .data                                    0x80036d24   Section        8  xgpt.o(.data)
    timestamp                                0x80036d24   Data           4  xgpt.o(.data)
    lastinc                                  0x80036d28   Data           4  xgpt.o(.data)
    .data                                    0x80036d30   Section     1936  main_nand.o(.data)
    .data                                    0x800374c0   Section        8  nand_util_func.o(.data)
    .data                                    0x800374c8   Section       48  BLOADER.o(.data)
    g_os                                     0x800374c9   Data           1  BLOADER.o(.data)
    .data                                    0x800374f8   Section        2  BLOADER.o(.data)
    .data                                    0x800374fc   Section      768  EMI.o(.data)
    .data                                    0x800377fc   Section       32  platform.o(.data)
    .data                                    0x8003781c   Section        4  rx_buffer.o(.data)
    .data                                    0x80037820   Section        4  rx_buffer.o(.data)
    .data                                    0x80037824   Section        1  sal_pll.o(.data)
    bInit                                    0x80037824   Data           1  sal_pll.o(.data)
    .data                                    0x80037828   Section        4  blkdev.o(.data)
    blkdev_list                              0x80037828   Data           4  blkdev.o(.data)
    .data                                    0x80037830   Section       40  sdmmc.o(.data)
    g_sdmmc_addr_mode                        0x80037830   Data           1  sdmmc.o(.data)
    g_boot_host_id                           0x80037834   Data           4  sdmmc.o(.data)
    ffffBlock                                0x80037850   Data           8  sdmmc.o(.data)
    .data                                    0x80037858   Section       56  sdmmc_handler.o(.data)
    tmp_timer                                0x80037888   Data           8  sdmmc_handler.o(.data)
    .data                                    0x80037890   Section      700  bmt.o(.data)
    pool_erased                              0x80037891   Data           1  bmt.o(.data)
    MAIN_SIGNATURE                           0x80037898   Data           4  bmt.o(.data)
    OOB_SIGNATURE                            0x8003789c   Data           4  bmt.o(.data)
    nand_chip_bmt                            0x800378a0   Data           4  bmt.o(.data)
    sig_buf                                  0x800378a4   Data           4  bmt.o(.data)
    pi                                       0x800378a8   Data           4  bmt.o(.data)
    total_block_count                        0x800378ac   Data           4  bmt.o(.data)
    system_block_count                       0x800378b0   Data           4  bmt.o(.data)
    bmt_block_count                          0x800378b4   Data           4  bmt.o(.data)
    page_per_block                           0x800378b8   Data           4  bmt.o(.data)
    bmt_block_index                          0x800378c0   Data           4  bmt.o(.data)
    .data                                    0x80037b4c   Section        4  dl_usb.o(.data)
    .data                                    0x80037b50   Section        8  dl_usb_drv.o(.data)
    g_FIFOadd                                0x80037b54   Data           4  dl_usb_drv.o(.data)
    .data                                    0x80037b58   Section        8  dl_usbacm_adap.o(.data)
    InheritedUSB                             0x80037b58   Data           1  dl_usbacm_adap.o(.data)
    err_threshold                            0x80037b5c   Data           4  dl_usbacm_adap.o(.data)
    .data                                    0x80037b60   Section       76  UART.o(.data)
    g_uart1                                  0x80037b60   Data           4  UART.o(.data)
    uart_base                                0x80037b64   Data          16  UART.o(.data)
    .data                                    0x80037bac   Section       32  sb_encode.o(.data)
    g_AC_Enable                              0x80037bac   Data           1  sb_encode.o(.data)
    g_SB_State                               0x80037bad   Data           1  sb_encode.o(.data)
    g_b_USB_DL_Decrypt_Image                 0x80037bae   Data           1  sb_encode.o(.data)
    g_AC_Offset                              0x80037bb0   Data           4  sb_encode.o(.data)
    g_AC_Length                              0x80037bb4   Data           4  sb_encode.o(.data)
    g_SB_Count                               0x80037bb8   Data           4  sb_encode.o(.data)
    g_MTK_ROMInfo_Offset                     0x80037bbc   Data           4  sb_encode.o(.data)
    g_ReceiveDataOffset                      0x80037bc0   Data           4  sb_encode.o(.data)
    g_SB_EncodeINT                           0x80037bc4   Data           4  sb_encode.o(.data)
    g_SB_EncodeINT_Offset                    0x80037bc8   Data           4  sb_encode.o(.data)
    .data                                    0x80037bcc   Section        1  security.o(.data)
    .data                                    0x80037bcd   Section        1  sec_secro.o(.data)
    allow_one_format_command_after_unlocking 0x80037bcd   Data           1  sec_secro.o(.data)
    .data                                    0x80037bd0   Section       96  dramc_calib.o(.data)
    .data                                    0x80037c30   Section      688  efi.o(.data)
    crc32_table_init                         0x80037c30   Data           4  efi.o(.data)
    gpt_read_done                            0x80037c34   Data           4  efi.o(.data)
    nr_entries                               0x80037c38   Data           4  efi.o(.data)
    entries_crc32                            0x80037c3c   Data           4  efi.o(.data)
    first_usable_lba                         0x80037c40   Data           8  efi.o(.data)
    last_usable_lba                          0x80037c48   Data           8  efi.o(.data)
    partition_basic_data_guid                0x80037c50   Data          16  efi.o(.data)
    partition_guid_tables                    0x80037c60   Data         640  efi.o(.data)
    .data                                    0x80037ee0   Section       12  rtc.o(.data)
    recovery_flag                            0x80037ee0   Data           1  rtc.o(.data)
    g_pmicflag_mt6397                        0x80037ee1   Data           1  rtc.o(.data)
    g_rtc_base                               0x80037ee4   Data           4  rtc.o(.data)
    g_rtc_poweroffmode                       0x80037ee8   Data           4  rtc.o(.data)
    .data                                    0x80037eec   Section       20  nand_download_internal.o(.data)
    second_pl_buf                            0x80037efc   Data           4  nand_download_internal.o(.data)
    .data                                    0x80037f00   Section       12  dl_usb_resource.o(.data)
    usb_ifcreate_number                      0x80037f00   Data           1  dl_usb_resource.o(.data)
    usb_intr_number                          0x80037f01   Data           1  dl_usb_resource.o(.data)
    usb_bulkin_number                        0x80037f02   Data           1  dl_usb_resource.o(.data)
    usb_bulkout_number                       0x80037f03   Data           1  dl_usb_resource.o(.data)
    usb_device_code                          0x80037f04   Data           8  dl_usb_resource.o(.data)
    .data                                    0x80037f0c   Section        3  dl_usbacm_drv.o(.data)
    .data                                    0x80037f0f   Section        1  dl_usbacm_drv.o(.data)
    .data                                    0x80037f10   Section       64  md5.o(.data)
    PADDING                                  0x80037f10   Data          64  md5.o(.data)
    .data                                    0x80037f50   Section        1  sec_dl.o(.data)
    .data                                    0x80037f51   Section        1  seccfg_ver.o(.data)
    seccfg_ver                               0x80037f51   Data           1  seccfg_ver.o(.data)
    .data                                    0x80037f52   Section        1  sec_dev.o(.data)
    .data                                    0x80037f53   Section        1  sec_hdr.o(.data)
    sec_ver                                  0x80037f53   Data           1  sec_hdr.o(.data)
    .data                                    0x80037f54   Section       88  dramc_dle_cal.o(.data)
    global_dle_value                         0x80037f58   Data           4  dramc_dle_cal.o(.data)
    .data                                    0x80037fac   Section      228  dramc_dqs_gw.o(.data)
    dqs_gw_coarse                            0x80037fc4   Data           4  dramc_dqs_gw.o(.data)
    dqs_gw_fine                              0x80037fc8   Data           4  dramc_dqs_gw.o(.data)
    .data                                    0x80038090   Section        4  dramc_dqs_gw.o(.data)
    .data                                    0x80038094   Section        4  dramc_dqs_gw.o(.data)
    .data                                    0x80038098   Section        4  dramc_dqs_gw.o(.data)
    .data                                    0x8003809c   Section       36  msdc.o(.data)
    msdc_rsp                                 0x8003809c   Data          36  msdc.o(.data)
    .data                                    0x800380c0   Section       20  msdc_cust.o(.data)
    .data                                    0x800380d4   Section        4  ext_region.o(.data)
    ext_region                               0x800380d4   Data           4  ext_region.o(.data)
    .bss                                     0x800380d8   Section     1620  nand_drv_COMMON_v3_1.o(.bss)
    .bss                                     0x80038730   Section      648  hw_config.o(.bss)
    .bss                                     0x800389b8   Section    24912  main_nand.o(.bss)
    m_unsparse_data                          0x800389b8   Data          80  main_nand.o(.bss)
    ssf_crc_table                            0x8003e708   Data        1024  main_nand.o(.bss)
    .bss                                     0x8003eb08   Section    37024  nand_util_func.o(.bss)
    .bss                                     0x80047ba8   Section      388  BLOADER.o(.bss)
    .bss                                     0x80047d30   Section       96  BLOADER.o(.bss)
    .bss                                     0x80047d90   Section     1068  sdmmc.o(.bss)
    emptyBlock                               0x80047d90   Data         512  sdmmc.o(.bss)
    g_sdmmc_internal_buf                     0x80047f90   Data         512  sdmmc.o(.bss)
    g_sdmmc_dev                              0x80048190   Data          44  sdmmc.o(.bss)
    .bss                                     0x800481c0   Section     1736  sdmmc_handler.o(.bss)
    m_unsparse_data                          0x800481c0   Data          72  sdmmc_handler.o(.bss)
    .bss                                     0x80048888   Section    149600  bmt.o(.bss)
    local_spare_buf                          0x80048888   Data        4096  bmt.o(.bss)
    local_page_buf                           0x80049888   Data       32768  bmt.o(.bss)
    page_buf                                 0x800518d0   Data       32768  bmt.o(.bss)
    page_readbuf                             0x800598d0   Data       32768  bmt.o(.bss)
    spare_buf                                0x800618d0   Data        2048  bmt.o(.bss)
    tmp_spare_buf                            0x800620d0   Data        2048  bmt.o(.bss)
    bmt                                      0x800628d0   Data        6168  bmt.o(.bss)
    dat_buf                                  0x800640e8   Data       32768  bmt.o(.bss)
    oob_buf                                  0x8006c0e8   Data        4096  bmt.o(.bss)
    .bss                                     0x8006d0e8   Section    18432  test_main.o(.bss)
    .bss                                     0x800718e8   Section     1120  dl_usb.o(.bss)
    .bss                                     0x80071d48   Section      152  dl_usb_drv.o(.bss)
    .bss                                     0x80071de0   Section     1040  dl_usbacm_adap.o(.bss)
    .bss                                     0x800721f0   Section      224  UART.o(.bss)
    uart_devs                                0x800721f0   Data         224  UART.o(.bss)
    .bss                                     0x800722d0   Section    43972  security.o(.bss)
    .bss                                     0x8007ce94   Section     4112  security.o(.bss)
    .bss                                     0x8007dea4   Section       16  dramc_calib.o(.bss)
    .bss                                     0x8007deb4   Section    18432  efi.o(.bss)
    crc32_table                              0x8007deb4   Data        1024  efi.o(.bss)
    pmbr_buf                                 0x8007e2b4   Data         512  efi.o(.bss)
    header_buf                               0x8007e4b4   Data         512  efi.o(.bss)
    entries_buf                              0x8007e6b4   Data       16384  efi.o(.bss)
    .bss                                     0x800826b4   Section     3408  mmc_core.o(.bss)
    sd_host                                  0x800826b4   Data         384  mmc_core.o(.bss)
    sd_card                                  0x80082834   Data        3024  mmc_core.o(.bss)
    .bss                                     0x80083404   Section      512  sdmmc_download_internal.o(.bss)
    emmc_buf                                 0x80083404   Data         512  sdmmc_download_internal.o(.bss)
    .bss                                     0x80083604   Section      304  dl_usb_resource.o(.bss)
    usb_ifcreate_tbl                         0x80083604   Data          48  dl_usb_resource.o(.bss)
    usb_conf_desc                            0x80083634   Data         256  dl_usb_resource.o(.bss)
    .bss                                     0x80083734   Section       48  dl_usbacm_drv.o(.bss)
    .bss                                     0x80083764   Section    32768  sec_dev.o(.bss)
    .bss                                     0x8008b764   Section      108  sha1_sw.o(.bss)
    canned_context                           0x8008b764   Data         108  sha1_sw.o(.bss)
    .bss                                     0x8008b7d0   Section       64  dramc_dle_cal.o(.bss)
    .bss                                     0x8008b810   Section      152  dramc_dqs_gw.o(.bss)
    dqs_gw                                   0x8008b810   Data         128  dramc_dqs_gw.o(.bss)
    cur_pwin                                 0x8008b890   Data          12  dramc_dqs_gw.o(.bss)
    max_pwin                                 0x8008b89c   Data          12  dramc_dqs_gw.o(.bss)
    .bss                                     0x8008b8a8   Section     2080  msdc.o(.bss)
    msdc_priv                                0x8008b8a8   Data         832  msdc.o(.bss)
    msdc_gpd_pool                            0x8008bbe8   Data         224  msdc.o(.bss)
    msdc_bd_pool                             0x8008bcc8   Data        1024  msdc.o(.bss)
    .bss                                     0x8008c0c8   Section       84  sej_sk.o(.bss)
    sej_ctx                                  0x8008c0c8   Data          84  sej_sk.o(.bss)
    .bss                                     0x8008c11c   Section       42  locale.o(.bss)
    mixed_name_buf                           0x8008c11c   Data          42  locale.o(.bss)
    .bss                                     0x8008c148   Section        4  rt_heap_descriptor.o(.bss)
    __rt_heap_descriptor_data                0x8008c148   Data           4  rt_heap_descriptor.o(.bss)
    .bss                                     0x8008c14c   Section       20  rt_locale.o(.bss)
    __rt_locale_data                         0x8008c14c   Data          20  rt_locale.o(.bss)
    CUSTOMER_ZIDATA                          0x8008c160   Section     7680  main_nand.o(CUSTOMER_ZIDATA)
    .ARM.__AT_0x80100000                     0x80100000   Section        4  da_init.o(.ARM.__AT_0x80100000)

    Global Symbols

    Symbol Name                              Value     Ov Type        Size  Object(Section)

    BuildAttributes$$THM_ISAv4$ARM_ISAv7$X$E$P$J$Z$N$DE$K$B$S$VFPv3$PE$PLD4$MPE$A:L22UL41UL21$X:L11$S22US41US21$IEEE1$IW$USESV6$~STKCKD$USESV7$~SHL$OTIME$ROPI$EBA8$STANDARDLIB$THUMB2LIB$REQ8$EABIv2 0x00000000   Number         0  anon$$obj.o ABSOLUTE
    Image$$CUSTOMIZED_MODULE$$Base            - Undefined Weak Reference
    Image$$CUSTOMIZED_MODULE$$Length          - Undefined Weak Reference
    Image$$CUSTOMIZED_MODULE$$ZI$$Base        - Undefined Weak Reference
    Image$$CUSTOMIZED_MODULE$$ZI$$Length      - Undefined Weak Reference
    Image$$ZI_CUSTOM$$Base                    - Undefined Weak Reference
    Image$$ZI_CUSTOM$$Length                  - Undefined Weak Reference
    Image$$ZI_CUSTOM$$ZI$$Base                - Undefined Weak Reference
    Image$$ZI_CUSTOM$$ZI$$Length              - Undefined Weak Reference
    Image$$ZI_MAIN$$Base                      - Undefined Weak Reference
    Image$$ZI_MAIN$$Length                    - Undefined Weak Reference
    Image$$ZI_MAIN$$ZI$$Base                  - Undefined Weak Reference
    Image$$ZI_MAIN$$ZI$$Length                - Undefined Weak Reference
    Load$$CUSTOMIZED_MODULE$$Base             - Undefined Weak Reference
    Load$$ZI_CUSTOM$$Base                     - Undefined Weak Reference
    Load$$ZI_MAIN$$Base                       - Undefined Weak Reference
    __ARM_exceptions_init                     - Undefined Weak Reference
    __alloca_initialize                       - Undefined Weak Reference
    __cpp_initialize__aeabi_                  - Undefined Weak Reference
    __cxa_finalize                            - Undefined Weak Reference
    __sigvec_lookup                           - Undefined Weak Reference
    __user_heap_extent                        - Undefined Weak Reference
    _atexit_init                              - Undefined Weak Reference
    _clock_init                               - Undefined Weak Reference
    _fp_trap_init                             - Undefined Weak Reference
    _fp_trap_shutdown                         - Undefined Weak Reference
    _get_lc_collate                           - Undefined Weak Reference
    _get_lc_ctype                             - Undefined Weak Reference
    _get_lc_monetary                          - Undefined Weak Reference
    _get_lc_numeric                           - Undefined Weak Reference
    _get_lc_time                              - Undefined Weak Reference
    _getenv_init                              - Undefined Weak Reference
    _handle_redirection                       - Undefined Weak Reference
    _initio                                   - Undefined Weak Reference
    _mutex_acquire                            - Undefined Weak Reference
    _mutex_free                               - Undefined Weak Reference
    _mutex_release                            - Undefined Weak Reference
    _rand_init                                - Undefined Weak Reference
    _signal_finish                            - Undefined Weak Reference
    _signal_init                              - Undefined Weak Reference
    _terminateio                              - Undefined Weak Reference
    Image$$EXT_RAM_ZI$$ZI$$Length            0x00055e88   Number         0  anon$$obj.o ABSOLUTE
    NFI_Reset                                0x8000001d   Thumb Code    34  nand_drv_COMMON_v3_1.o(.text)
    NFI_RANDOMIZER_ENCODE                    0x8000003f   Thumb Code   122  nand_drv_COMMON_v3_1.o(.text)
    NFI_RANDOMIZER_DECODE                    0x800000b9   Thumb Code   122  nand_drv_COMMON_v3_1.o(.text)
    NAND_COMMON_Reset_V3                     0x80000133   Thumb Code    70  nand_drv_COMMON_v3_1.o(.text)
    HYNIX_RR_TABLE_READ                      0x80000179   Thumb Code   630  nand_drv_COMMON_v3_1.o(.text)
    HYNIX_Set_RR_Para                        0x800003ef   Thumb Code   736  nand_drv_COMMON_v3_1.o(.text)
    HYNIX_16NM_RR_TABLE_READ                 0x800006cf   Thumb Code   658  nand_drv_COMMON_v3_1.o(.text)
    HYNIX_16NM_Set_RR_Para                   0x80000961   Thumb Code   256  nand_drv_COMMON_v3_1.o(.text)
    NAND_COMMON_Set_Feature                  0x80000cf5   Thumb Code   172  nand_drv_COMMON_v3_1.o(.text)
    NAND_COMMON_Randomizer_Config            0x80000e4d   Thumb Code     4  nand_drv_COMMON_v3_1.o(.text)
    NFI_IsSLC_Blk                            0x80000e51   Thumb Code    22  nand_drv_COMMON_v3_1.o(.text)
    NFI_TLC_GetMappedWL                      0x80000e67   Thumb Code    16  nand_drv_COMMON_v3_1.o(.text)
    NFI_TLC_GetRowAddr                       0x80000e77   Thumb Code    26  nand_drv_COMMON_v3_1.o(.text)
    NFI_TLC_SetpPlaneAddr                    0x80000e91   Thumb Code    34  nand_drv_COMMON_v3_1.o(.text)
    NFI_TLC_GetMappedPgAddr                  0x80000eb3   Thumb Code    62  nand_drv_COMMON_v3_1.o(.text)
    NAND_COMMON_CS_ON                        0x80000ef1   Thumb Code    72  nand_drv_COMMON_v3_1.o(.text)
    NAND_COMMON_ReadID_V3                    0x80000f39   Thumb Code   206  nand_drv_COMMON_v3_1.o(.text)
    NAND_COMMON_ReadStatus_V3                0x80001007   Thumb Code   232  nand_drv_COMMON_v3_1.o(.text)
    NAND_COMMON_CheckWP_V3                   0x800010ef   Thumb Code   126  nand_drv_COMMON_v3_1.o(.text)
    NAND_COMMON_BlockErase_V3                0x8000116d   Thumb Code   942  nand_drv_COMMON_v3_1.o(.text)
    NAND_COMMON_BadBlockSymbol_Check_V3      0x8000151b   Thumb Code    60  nand_drv_COMMON_v3_1.o(.text)
    NAND_COMMON_BadBlockSymbol_Set_V3        0x80001557   Thumb Code    66  nand_drv_COMMON_v3_1.o(.text)
    NAND_COMMON_Block_charge_V3              0x80001599   Thumb Code   192  nand_drv_COMMON_v3_1.o(.text)
    NAND_COMMON_PageProgramBad_V3            0x80001659   Thumb Code   492  nand_drv_COMMON_v3_1.o(.text)
    NUTL_FIFO_Write_V3                       0x80001845   Thumb Code   130  nand_drv_COMMON_v3_1.o(.text)
    NAND_COMMON_PageProgram_V3               0x800018c7   Thumb Code  1654  nand_drv_COMMON_v3_1.o(.text)
    NFI_TLC_PageWrite                        0x80001f3d   Thumb Code   592  nand_drv_COMMON_v3_1.o(.text)
    NFI_TLC_WLProgram                        0x8000218d   Thumb Code   106  nand_drv_COMMON_v3_1.o(.text)
    NAND_COMMON_TLC_BlockProgram             0x800021f7   Thumb Code   388  nand_drv_COMMON_v3_1.o(.text)
    NUTL_TLC_ChangeColumn                    0x8000237b   Thumb Code   350  nand_drv_COMMON_v3_1.o(.text)
    NUTL_MLC_ReadRetry                       0x800024d9   Thumb Code    14  nand_drv_COMMON_v3_1.o(.text)
    NAND_READ_FDM_DATA                       0x800024e7   Thumb Code    36  nand_drv_COMMON_v3_1.o(.text)
    NUTL_FIFO_Read_V3                        0x8000250b   Thumb Code   636  nand_drv_COMMON_v3_1.o(.text)
    NAND_COMMON_PageRead_V3_hw               0x80002787   Thumb Code  1854  nand_drv_COMMON_v3_1.o(.text)
    NAND_COMMON_PageRead_V3                  0x80002ec5   Thumb Code   168  nand_drv_COMMON_v3_1.o(.text)
    NAND_COMMON_PageSpareProgram_V3          0x80002f6d   Thumb Code   432  nand_drv_COMMON_v3_1.o(.text)
    NAND_COMMON_SpareRead_V3                 0x8000311d   Thumb Code    10  nand_drv_COMMON_v3_1.o(.text)
    NAND_COMMON_SpareProgram_V3              0x80003127   Thumb Code    10  nand_drv_COMMON_v3_1.o(.text)
    micron_pp_mapping                        0x80003131   Thumb Code    52  nand_drv_COMMON_v3_1.o(.text)
    NAND_SAMSUNG_OTP_Enter                   0x800031cd   Thumb Code     4  nand_drv_SAMSUNG.o(.text)
    NAND_SAMSUNG_OTP_PageRead                0x800031d1   Thumb Code     4  nand_drv_SAMSUNG.o(.text)
    NAND_SAMSUNG_OTP_PageProgram             0x800031d5   Thumb Code     4  nand_drv_SAMSUNG.o(.text)
    NAND_SAMSUNG_OTP_Lock                    0x800031d9   Thumb Code     4  nand_drv_SAMSUNG.o(.text)
    NAND_SAMSUNG_OTP_Lock_CheckStatus        0x800031dd   Thumb Code     6  nand_drv_SAMSUNG.o(.text)
    NAND_SAMSUNG_OTP_Exit                    0x800031e3   Thumb Code     4  nand_drv_SAMSUNG.o(.text)
    NAND_ST_WholeChipUnlock_V3               0x800031e9   Thumb Code    22  nand_drv_ST.o(.text)
    NAND_superAND_Reset                      0x80003205   Thumb Code     4  nand_drv_superAND.o(.text)
    NAND_superAND_BadBlockSymbol_Check       0x80003209   Thumb Code     4  nand_drv_superAND.o(.text)
    NAND_superAND_BadBlockSymbol_Set         0x8000320d   Thumb Code     4  nand_drv_superAND.o(.text)
    NAND_superAND_PageRead_V3                0x80003211   Thumb Code     6  nand_drv_superAND.o(.text)
    NAND_superAND_PageProgram                0x80003217   Thumb Code     6  nand_drv_superAND.o(.text)
    NAND_superAND_PageSpareProgram           0x8000321d   Thumb Code     6  nand_drv_superAND.o(.text)
    NAND_superAND_SpareRead                  0x80003223   Thumb Code     4  nand_drv_superAND.o(.text)
    NAND_superAND_SpareProgram               0x80003227   Thumb Code     6  nand_drv_superAND.o(.text)
    DaLoopEntry                              0x8000322d   Thumb Code   356  da_init.o(.text)
    DAInit                                   0x80003391   Thumb Code     2  da_init.o(.text)
    mem_overlap_copy                         0x80003495   Thumb Code    46  hw_config.o(.text)
    mem_set                                  0x800034c3   Thumb Code    14  hw_config.o(.text)
    mem_compare                              0x800034d1   Thumb Code    40  hw_config.o(.text)
    DetectRAMSize                            0x800034f9   Thumb Code   204  hw_config.o(.text)
    DetectExtDRAM                            0x800035c5   Thumb Code   210  hw_config.o(.text)
    NUTL_Nand_CS_Check                       0x80003697   Thumb Code   136  hw_config.o(.text)
    NUTL_CheckDevice                         0x8000371f   Thumb Code  1080  hw_config.o(.text)
    SchematicSetup                           0x80003b57   Thumb Code   646  hw_config.o(.text)
    DetectBasebandChip                       0x80003ddd   Thumb Code    36  hw_config.o(.text)
    C_Main                                   0x80003e65   Thumb Code    26  main.o(.text)
    UART_PutByte                             0x80003e85   Thumb Code    10  logging.o(.text)
    PutUARTByte                              0x80003e8f   Thumb Code    22  logging.o(.text)
    DBG_MSG                                  0x80003ed1   Thumb Code   268  logging.o(.text)
    InitLoggingFacility                      0x80003fdd   Thumb Code    72  logging.o(.text)
    SetLoggingLevel                          0x80004025   Thumb Code    24  logging.o(.text)
    GetLoggingLevel                          0x8000403d   Thumb Code     6  logging.o(.text)
    Log                                      0x80004043   Thumb Code    78  logging.o(.text)
    gpt4_get_current_tick                    0x80004121   Thumb Code     6  xgpt.o(.text)
    gpt4_timeout_tick                        0x80004127   Thumb Code    28  xgpt.o(.text)
    gpt4_time2tick_us                        0x80004143   Thumb Code    20  xgpt.o(.text)
    gpt4_tick2time_ms                        0x80004157   Thumb Code    12  xgpt.o(.text)
    gpt4_time2tick_ms                        0x80004163   Thumb Code    40  xgpt.o(.text)
    gpt4_busy_wait_us                        0x8000418b   Thumb Code    26  xgpt.o(.text)
    gpt4_busy_wait_ms                        0x800041a5   Thumb Code    26  xgpt.o(.text)
    get_timer                                0x800041ef   Thumb Code    44  xgpt.o(.text)
    mdelay                                   0x8000421b   Thumb Code    38  xgpt.o(.text)
    udelay                                   0x80004241   Thumb Code   112  xgpt.o(.text)
    timer_init                               0x800042b1   Thumb Code    24  xgpt.o(.text)
    LittleEndian2BigEndian16                 0x800042f5   Thumb Code    38  main_nand.o(.text)
    fue_calculate_chksum                     0x8000431b   Thumb Code    24  main_nand.o(.text)
    NUTL_Check_Image_Begin_Address           0x80004333   Thumb Code   104  main_nand.o(.text)
    NFB_FOTA_Super_Block_Header_Gen          0x8000439b   Thumb Code    80  main_nand.o(.text)
    NFB_FOTA_Super_Block_Header_Verify       0x800043eb   Thumb Code    28  main_nand.o(.text)
    NMAIN_SetupImageList                     0x80004407   Thumb Code   718  main_nand.o(.text)
    NMAIN_WritePTB                           0x800055cb   Thumb Code  2092  main_nand.o(.text)
    NMAIN_ReadPTB                            0x80005df7   Thumb Code   630  main_nand.o(.text)
    PPageRegion                              0x8000606d   Thumb Code   634  main_nand.o(.text)
    NMAIN_ReadBMT                            0x800062e7   Thumb Code    86  main_nand.o(.text)
    NMAIN_SetUnsparseStatus                  0x8000633d   Thumb Code    14  main_nand.o(.text)
    NMAIN_CheckUBIDL_Status                  0x8000634b   Thumb Code    90  main_nand.o(.text)
    NMAIN_DownloadTLCUBIImage                0x80006a55   Thumb Code   524  main_nand.o(.text)
    NMAIN_WriteDataWithBlock                 0x80006c61   Thumb Code   182  main_nand.o(.text)
    NMAIN_DownloadFTL2Image                  0x80006d17   Thumb Code   472  main_nand.o(.text)
    NMAIN_Write_DL_info                      0x80006eef   Thumb Code    48  main_nand.o(.text)
    NMAIN_DownloadImage                      0x80006f1f   Thumb Code  6800  main_nand.o(.text)
    NMAIN_ReadPageCmd                        0x800089af   Thumb Code   244  main_nand.o(.text)
    NMAIN_ReadCmd                            0x80008aa3   Thumb Code   668  main_nand.o(.text)
    NMAIN_Read_DL_info                       0x80008eaf   Thumb Code   156  main_nand.o(.text)
    NMAIN_BmtRemark                          0x80008f4b   Thumb Code    10  main_nand.o(.text)
    NMAIN_Format                             0x80008f55   Thumb Code  1152  main_nand.o(.text)
    NUTL_NFI_GPIO_INIT                       0x80009451   Thumb Code   286  nand_util_func.o(.text)
    NUTL_NFI_SelectCS                        0x8000956f   Thumb Code    32  nand_util_func.o(.text)
    NUTL_NFIv3_Init                          0x8000958f   Thumb Code    72  nand_util_func.o(.text)
    NUTL_NFI_Init                            0x800095d7   Thumb Code     2  nand_util_func.o(.text)
    NUTL_NFIv3_ReInit_BL                     0x800095d9   Thumb Code   558  nand_util_func.o(.text)
    NUTL_NFIv3_ReInit_After_BL               0x80009807   Thumb Code   234  nand_util_func.o(.text)
    NUTL_NFI_SetPageFormat                   0x800098f1   Thumb Code   280  nand_util_func.o(.text)
    NUTL_SetPageBuf8                         0x80009a09   Thumb Code   130  nand_util_func.o(.text)
    NUTL_NFIv3_BadBlock_Check                0x80009a8b   Thumb Code   402  nand_util_func.o(.text)
    NUTL_BadBlock_Check                      0x80009c1d   Thumb Code     2  nand_util_func.o(.text)
    NUTL_FindGoodBlock                       0x80009c1f   Thumb Code   602  nand_util_func.o(.text)
    NUTL_NFIv3_BlockErase                    0x80009e79   Thumb Code   478  nand_util_func.o(.text)
    NUTL_BlockErase                          0x8000a057   Thumb Code   160  nand_util_func.o(.text)
    NUTL_BlockEraseEx                        0x8000a0f7   Thumb Code    76  nand_util_func.o(.text)
    NUTL_NFIv5_Randomizer_Config             0x8000a143   Thumb Code    18  nand_util_func.o(.text)
    NUTL_NFIv3_BadBlock_ReMark               0x8000a155   Thumb Code  1552  nand_util_func.o(.text)
    NUTL_PageRead                            0x8000a765   Thumb Code   522  nand_util_func.o(.text)
    NUTL_PageCopy_Ex                         0x8000a96f   Thumb Code    98  nand_util_func.o(.text)
    NUTL_PageCopy                            0x8000a9d1   Thumb Code     8  nand_util_func.o(.text)
    NUTL_BlockProgram                        0x8000a9d9   Thumb Code   240  nand_util_func.o(.text)
    NUTL_NFIv3_PageProgram                   0x8000aac9   Thumb Code   800  nand_util_func.o(.text)
    NUTL_PageProgram                         0x8000ade9   Thumb Code    32  nand_util_func.o(.text)
    NUTL_SetPageBuf32                        0x8000ae09   Thumb Code   132  nand_util_func.o(.text)
    NUTL_CopyBack                            0x8000ae8d   Thumb Code   140  nand_util_func.o(.text)
    NUTL_BlockReplacement                    0x8000af19   Thumb Code   304  nand_util_func.o(.text)
    NUTL_CheckRange                          0x8000b049   Thumb Code   156  nand_util_func.o(.text)
    NUTL_FLUSH_BMT                           0x8000b0e5   Thumb Code     4  nand_util_func.o(.text)
    NUTL_Write_DL_INFO                       0x8000b0e9   Thumb Code   580  nand_util_func.o(.text)
    NUTL_Read_DL_INFO                        0x8000b32d   Thumb Code   278  nand_util_func.o(.text)
    NUTL_OTP_CheckDevice                     0x8000b443   Thumb Code    20  nand_util_func.o(.text)
    NUTL_OTP_GetSize                         0x8000b457   Thumb Code    28  nand_util_func.o(.text)
    NUTL_OTP_SearchPhysicalAddr              0x8000b473   Thumb Code   370  nand_util_func.o(.text)
    NUTL_OTP_Page_Read                       0x8000b5e5   Thumb Code   104  nand_util_func.o(.text)
    NUTL_OTP_Program_CheckDone               0x8000b64d   Thumb Code    62  nand_util_func.o(.text)
    NUTL_OTP_Page_Program                    0x8000b68b   Thumb Code   110  nand_util_func.o(.text)
    NUTL_OTP_Lock_CheckStatus                0x8000b6f9   Thumb Code    58  nand_util_func.o(.text)
    NUTL_OTP_Lock                            0x8000b733   Thumb Code    96  nand_util_func.o(.text)
    NUTL_ReadBlocks                          0x8000b799   Thumb Code   146  nand_util_func.o(.text)
    NUTL_EraseBlocks                         0x8000b831   Thumb Code   104  nand_util_func.o(.text)
    NUTL_WriteBlocks                         0x8000b89d   Thumb Code   214  nand_util_func.o(.text)
    FinishCmd                                0x8000b97d   Thumb Code    92  BLOADER.o(.text)
    ObtainNumPackets                         0x8000b9d9   Thumb Code    60  BLOADER.o(.text)
    CalculatePacketLength                    0x8000ba15   Thumb Code    54  BLOADER.o(.text)
    ObtainData                               0x8000ba4b   Thumb Code   256  BLOADER.o(.text)
    NAND_BmtRemarkProgress                   0x8000bb4b   Thumb Code     6  BLOADER.o(.text)
    NAND_BmtRemark                           0x8000bb51   Thumb Code   108  BLOADER.o(.text)
    SpeedCmd                                 0x8000bf5d   Thumb Code   148  BLOADER.o(.text)
    ReportDetectionResult                    0x8000bff1   Thumb Code   458  BLOADER.o(.text)
    READ_DL_INFO                             0x8000c1bb   Thumb Code    48  BLOADER.o(.text)
    ReadCmd                                  0x8000c1eb   Thumb Code   454  BLOADER.o(.text)
    FormatCmd                                0x8000c3b1   Thumb Code   110  BLOADER.o(.text)
    WriteReg16Cmd                            0x8000c41f   Thumb Code    26  BLOADER.o(.text)
    ReadReg16Cmd                             0x8000c439   Thumb Code    24  BLOADER.o(.text)
    WriteReg32Cmd                            0x8000c451   Thumb Code    26  BLOADER.o(.text)
    ReadReg32Cmd                             0x8000c46b   Thumb Code    24  BLOADER.o(.text)
    EnableWatchDog                           0x8000c483   Thumb Code   172  BLOADER.o(.text)
    InitTimer                                0x8000c52f   Thumb Code     4  BLOADER.o(.text)
    SetupCOM                                 0x8000c533   Thumb Code   146  BLOADER.o(.text)
    InitCOM                                  0x8000c5c5   Thumb Code    34  BLOADER.o(.text)
    InitSecurity                             0x8000c5e7   Thumb Code    50  BLOADER.o(.text)
    AdjustBufferSize                         0x8000c619   Thumb Code    78  BLOADER.o(.text)
    EnableDRAM                               0x8000c667   Thumb Code   258  BLOADER.o(.text)
    DA_GetFATRange                           0x8000c769   Thumb Code   300  BLOADER.o(.text)
    SecureUsbDL_DecryptInternal              0x8000c895   Thumb Code   114  BLOADER.o(.text)
    SecureUsbDL_Decrypt                      0x8000c907   Thumb Code    18  BLOADER.o(.text)
    VerifyImageChecksum                      0x8000ca69   Thumb Code   272  BLOADER.o(.text)
    WriteCustomInfo                          0x8000cb79   Thumb Code    96  BLOADER.o(.text)
    Read_IMEI_PID_SWV                        0x8000cbd9   Thumb Code   126  BLOADER.o(.text)
    PMIC_GetBatteryVoltage                   0x8000cc57   Thumb Code     8  BLOADER.o(.text)
    COM_EnableUSBDL                          0x8000cc5f   Thumb Code   278  BLOADER.o(.text)
    COM_EnableUSBDL_EX                       0x8000cd75   Thumb Code   130  BLOADER.o(.text)
    COM_CheckUSBStatus                       0x8000cdf7   Thumb Code    44  BLOADER.o(.text)
    DACmdDispatcher                          0x8000ce23   Thumb Code  1054  BLOADER.o(.text)
    pmic_config_interface                    0x8000e417   Thumb Code    68  EMI.o(.text)
    MT6397_pmic_Vcore_adjust                 0x8000e45b   Thumb Code    32  EMI.o(.text)
    mt_get_dram_type                         0x8000e47b   Thumb Code    24  EMI.o(.text)
    MT6397_pmic_Vmem_adjust                  0x8000e493   Thumb Code   216  EMI.o(.text)
    MT6323_pmic_Vcore_adjust                 0x8000e56b   Thumb Code    32  EMI.o(.text)
    MT6323_pmic_Vmem_adjust                  0x8000e58b   Thumb Code    64  EMI.o(.text)
    pmic_Vcore_adjust                        0x8000e5cb   Thumb Code    32  EMI.o(.text)
    pmic_Vmem_adjust                         0x8000e5eb   Thumb Code    32  EMI.o(.text)
    dump_emi_v16                             0x8000e60b   Thumb Code  1476  EMI.o(.text)
    dump_emi_v12                             0x8000ebcf   Thumb Code  1038  EMI.o(.text)
    DRAM_MRR                                 0x8000efdd   Thumb Code   382  EMI.o(.text)
    read_adc_value                           0x8000f15b   Thumb Code   264  EMI.o(.text)
    mt_set_emi_load_bringup                  0x8000f263   Thumb Code  1206  EMI.o(.text)
    mt_set_emi_load_combo_MCP                0x8000f719   Thumb Code   652  EMI.o(.text)
    mt_set_emi                               0x8000f9a5   Thumb Code    42  EMI.o(.text)
    rgu_dram_reserved                        0x8000f9cf   Thumb Code    60  EMI.o(.text)
    SetupEMI_DRAM                            0x8000fa0b   Thumb Code   160  EMI.o(.text)
    myatoi                                   0x8000faab   Thumb Code   618  EMI.o(.text)
    MTK_EnableCache                          0x8000fe3d   Thumb Code    30  cache.o(.text)
    EnableCache                              0x8000fe5b   Thumb Code     2  cache.o(.text)
    Download_BL_CheckFlashDev                0x8000fe65   Thumb Code    88  download_bloader.o(.text)
    Download_BL_EraseHeaderBlock             0x8000feed   Thumb Code    52  download_bloader.o(.text)
    Download_BL_CheckProfile                 0x8000ff21   Thumb Code    44  download_bloader.o(.text)
    Download_BL_GetProfile                   0x8000ff4d   Thumb Code   110  download_bloader.o(.text)
    Download_BL_GetAllProfiles               0x8000ffbb   Thumb Code   138  download_bloader.o(.text)
    Download_BL_SetAllProfiles               0x80010045   Thumb Code    36  download_bloader.o(.text)
    Download_BL_GetPacketFromCOM             0x80010069   Thumb Code    20  download_bloader.o(.text)
    Download_BL_WritePacketToFlash_Internal  0x8001007d   Thumb Code    54  download_bloader.o(.text)
    Download_BL_PostProcess                  0x800100b3   Thumb Code    30  download_bloader.o(.text)
    BRLYT_GetFirstBeginAddr                  0x800100d1   Thumb Code    42  download_bloader.o(.text)
    BRLYT_GetLastBoundaryAddr                0x800100fb   Thumb Code    48  download_bloader.o(.text)
    Download_BL_CreateHeaderBlock            0x8001012b   Thumb Code   160  download_bloader.o(.text)
    Download_BL_AC_C_Disable                 0x800101cb   Thumb Code    30  download_bloader.o(.text)
    Download_BL_AC_C_Enable                  0x800101e9   Thumb Code    46  download_bloader.o(.text)
    Download_BL                              0x80010217   Thumb Code   822  download_bloader.o(.text)
    OTP_CheckDeviceCMD                       0x800105b5   Thumb Code    16  flash_otp.o(.text)
    OTP_GetSizeCMD                           0x800105c5   Thumb Code    34  flash_otp.o(.text)
    OTP_NAND_Read_and_Send                   0x800105e7   Thumb Code    82  flash_otp.o(.text)
    OTP_ReadCMD                              0x80010639   Thumb Code   142  flash_otp.o(.text)
    OTP_NAND_Receive_and_Program             0x800106c7   Thumb Code    92  flash_otp.o(.text)
    OTP_ProgramCMD                           0x80010723   Thumb Code   140  flash_otp.o(.text)
    OTP_LockCMD                              0x800107af   Thumb Code    16  flash_otp.o(.text)
    OTP_LockCheckStatusCMD                   0x800107bf   Thumb Code    16  flash_otp.o(.text)
    kal_mem_cpy                              0x800107dd   Thumb Code    18  kal_release.o(.text)
    kal_neon_mem_set                         0x800107ef   Thumb Code    74  kal_release.o(.text)
    kal_neon_mem_cpy                         0x80010839   Thumb Code    74  kal_release.o(.text)
    SAL_ForceDownloadViaUsb                  0x80010895   Thumb Code   236  platform.o(.text)
    SAL_IsBatteryExist                       0x80010981   Thumb Code    92  platform.o(.text)
    SAL_Init                                 0x80010a85   Thumb Code   140  platform.o(.text)
    SAL_DeInit                               0x80010b11   Thumb Code   116  platform.o(.text)
    SAL_ResetDevice                          0x80010b85   Thumb Code    90  platform.o(.text)
    SAL_ConfigPLL                            0x80010bdf   Thumb Code    42  platform.o(.text)
    SAL_PMIC_Read                            0x80010c09   Thumb Code    30  platform.o(.text)
    SAL_PMIC_Write                           0x80010c27   Thumb Code    32  platform.o(.text)
    SAL_RTCReleasePower                      0x80010c47   Thumb Code    16  platform.o(.text)
    kal_get_crc_u8                           0x80010c57   Thumb Code   762  platform.o(.text)
    GetRandomId                              0x80010f51   Thumb Code    52  rid.o(.text)
    _assert                                  0x80010f89   Thumb Code   300  assert.o(.text)
    mt_mempll_cali                           0x800110c9   Thumb Code   382  sal_pll.o(.text)
    mt_mempll_init                           0x80011247   Thumb Code   984  sal_pll.o(.text)
    SAL_PLL_Configure                        0x8001161f   Thumb Code   450  sal_pll.o(.text)
    SAL_PLL_Configure_ALL                    0x800117e1   Thumb Code    20  sal_pll.o(.text)
    SAL_Query_UART_Clock                     0x800117f5   Thumb Code     4  sal_pll.o(.text)
    SAL_PLL_Configure_All_Ex                 0x800117f9   Thumb Code    26  sal_pll.o(.text)
    SAL_PLL_Setup                            0x80011813   Thumb Code    36  sal_pll.o(.text)
    blkdev_register                          0x800118ad   Thumb Code    30  blkdev.o(.text)
    blkdev_get                               0x800118cb   Thumb Code    22  blkdev.o(.text)
    blkdev_bwrite                            0x800118e1   Thumb Code     6  blkdev.o(.text)
    blkdev_read                              0x800118e7   Thumb Code   418  blkdev.o(.text)
    blkdev_write                             0x80011a89   Thumb Code   444  blkdev.o(.text)
    blkdev_bwrite_part                       0x80011c45   Thumb Code    18  blkdev.o(.text)
    blkdev_write_part                        0x80011c57   Thumb Code   472  blkdev.o(.text)
    SDMMC_set_boot_host_id                   0x80011e31   Thumb Code    18  sdmmc.o(.text)
    SDMMC_Get_Card_Type                      0x80011e43   Thumb Code    48  sdmmc.o(.text)
    SDMMC_SetAddrMode                        0x80011f27   Thumb Code    14  sdmmc.o(.text)
    SDMMC_Read                               0x800120af   Thumb Code    48  sdmmc.o(.text)
    SDMMC_Write                              0x800120f3   Thumb Code    48  sdmmc.o(.text)
    SDMMC_Read_Part                          0x80012137   Thumb Code    72  sdmmc.o(.text)
    SDMMC_Write_Part                         0x80012199   Thumb Code    52  sdmmc.o(.text)
    SDMMC_Init                               0x800121e7   Thumb Code   222  sdmmc.o(.text)
    SDMMC_Erase_Is_Support                   0x800122c5   Thumb Code     8  sdmmc.o(.text)
    SDMMC_GetCurrentPart                     0x800122cd   Thumb Code    36  sdmmc.o(.text)
    SDMMC_Erase                              0x800122f1   Thumb Code    84  sdmmc.o(.text)
    SDMMC_GetInfo                            0x80012345   Thumb Code   286  sdmmc.o(.text)
    SDMMC_SetEXTCSD                          0x80012463   Thumb Code    84  sdmmc.o(.text)
    SDMMC_GetWpgSize                         0x800124b7   Thumb Code    54  sdmmc.o(.text)
    SDMMC_GetEraseSize                       0x800124ed   Thumb Code    72  sdmmc.o(.text)
    SDMMC_SetCurrentPart                     0x80012535   Thumb Code    68  sdmmc.o(.text)
    SDMMC_PowerCycle                         0x80012579   Thumb Code     4  sdmmc.o(.text)
    SDMMC_GetAllPartitionSize                0x8001257d   Thumb Code   476  sdmmc.o(.text)
    EMMC_OTP_start                           0x80012759   Thumb Code   142  sdmmc.o(.text)
    EMMC_OTP_lock_status                     0x800127e7   Thumb Code   122  sdmmc.o(.text)
    EMMC_OTP_CheckDevice                     0x80012861   Thumb Code    28  sdmmc.o(.text)
    OTP_EMMC_CheckDeviceCMD                  0x8001287d   Thumb Code    16  sdmmc.o(.text)
    OTP_EMMC_GetSizeCMD                      0x8001288d   Thumb Code    78  sdmmc.o(.text)
    EMMC_OTP_Block_Read                      0x800128db   Thumb Code   166  sdmmc.o(.text)
    OTP_EMMC_Read_and_Send                   0x80012981   Thumb Code    78  sdmmc.o(.text)
    OTP_EMMC_ReadCMD                         0x800129cf   Thumb Code   184  sdmmc.o(.text)
    EMMC_OTP_Block_Write                     0x80012a87   Thumb Code   842  sdmmc.o(.text)
    OTP_EMMC_Receive_and_Program             0x80012dd1   Thumb Code   112  sdmmc.o(.text)
    OTP_EMMC_ProgramCMD                      0x80012e41   Thumb Code   218  sdmmc.o(.text)
    EMMC_OTP_Lock                            0x80012f1b   Thumb Code   328  sdmmc.o(.text)
    OTP_EMMC_LockCMD                         0x80013063   Thumb Code    60  sdmmc.o(.text)
    OTP_EMMC_LockCheckStatusCMD              0x8001309f   Thumb Code    46  sdmmc.o(.text)
    verifyErase                              0x80013345   Thumb Code   108  sdmmc.o(.text)
    SDMMC_Erase_Part                         0x800133fd   Thumb Code   106  sdmmc.o(.text)
    SDMMC_CheckRange                         0x800134e1   Thumb Code   130  sdmmc_handler.o(.text)
    SDMMC_SwitchPartition                    0x80013563   Thumb Code    88  sdmmc_handler.o(.text)
    SDMMC_WriteDataCallback                  0x800135bb   Thumb Code    56  sdmmc_handler.o(.text)
    SDMMC_WriteDataCallback_Part             0x800135f3   Thumb Code    66  sdmmc_handler.o(.text)
    SDMMC_WriteData                          0x80013ce7   Thumb Code   120  sdmmc_handler.o(.text)
    SDMMC_Write_DL_info                      0x80013d5f   Thumb Code   208  sdmmc_handler.o(.text)
    SDMMC_WriteImage                         0x80013e2f   Thumb Code   902  sdmmc_handler.o(.text)
    SDMMC_Format                             0x800141b5   Thumb Code   440  sdmmc_handler.o(.text)
    SDMMC_WritePMT                           0x8001436d   Thumb Code   728  sdmmc_handler.o(.text)
    SDMMC_ReadPMT                            0x80014645   Thumb Code   152  sdmmc_handler.o(.text)
    SDMMC_SendPMT                            0x800146dd   Thumb Code   146  sdmmc_handler.o(.text)
    SDMMC_SendGPT                            0x8001476f   Thumb Code   132  sdmmc_handler.o(.text)
    SDMMC_ReadPT                             0x800147f3   Thumb Code   108  sdmmc_handler.o(.text)
    SDMMC_ReadGPT                            0x8001485f   Thumb Code   172  sdmmc_handler.o(.text)
    SDMMC_WriteGPT                           0x8001490b   Thumb Code   182  sdmmc_handler.o(.text)
    SDMMC_GetCardType                        0x800149c1   Thumb Code   588  sdmmc_handler.o(.text)
    SDMMC_Read_DL_info                       0x80014ca1   Thumb Code   160  sdmmc_handler.o(.text)
    SDMMC_Write_Cust_Info                    0x80014d41   Thumb Code    88  sdmmc_handler.o(.text)
    PAGE_NUM                                 0x80014ead   Thumb Code     8  bmt.o(.text)
    nand_read_fullpage_bmt                   0x80014eb5   Thumb Code    60  bmt.o(.text)
    nand_read_page_bmt                       0x80014ef1   Thumb Code    42  bmt.o(.text)
    nand_block_bad_bmt                       0x80014f1b   Thumb Code    26  bmt.o(.text)
    nand_erase_bmt                           0x80014f35   Thumb Code    54  bmt.o(.text)
    mark_block_bad_bmt                       0x80014f6b   Thumb Code    54  bmt.o(.text)
    nand_write_page_bmt                      0x80014fa1   Thumb Code    76  bmt.o(.text)
    is_block_bad                             0x80014fed   Thumb Code    84  bmt.o(.text)
    is_bmt_pool_block                        0x80015041   Thumb Code    14  bmt.o(.text)
    is_ftl_block                             0x8001504f   Thumb Code    20  bmt.o(.text)
    is_bmt_block                             0x80015063   Thumb Code    14  bmt.o(.text)
    set_bad_index_to_oob                     0x800156cd   Thumb Code    50  bmt.o(.text)
    init_bmt                                 0x800157cb   Thumb Code   178  bmt.o(.text)
    get_mapping_block_index                  0x80015c53   Thumb Code   122  bmt.o(.text)
    update_bmt                               0x80015ccd   Thumb Code   490  bmt.o(.text)
    init_build_bmt                           0x80015eb7   Thumb Code  1016  bmt.o(.text)
    NUTL_INIT_PARM                           0x800162af   Thumb Code   236  bmt.o(.text)
    NUTL_NFI_InitBMT                         0x8001639b   Thumb Code    82  bmt.o(.text)
    nand_read_page                           0x800163ed   Thumb Code   162  bmt.o(.text)
    nand_write_page                          0x8001648f   Thumb Code   160  bmt.o(.text)
    NUTL_Logic_BlockErase                    0x8001652f   Thumb Code   852  bmt.o(.text)
    find_empty_page_from_top                 0x80016883   Thumb Code    70  bmt.o(.text)
    NUTL_Logic_BlockProgram                  0x800168c9   Thumb Code   460  bmt.o(.text)
    NUTL_Logic_PageProgram                   0x80016a95   Thumb Code   812  bmt.o(.text)
    NUTL_Logic_PageRead                      0x80016dc1   Thumb Code   542  bmt.o(.text)
    nand_compare                             0x80016fdf   Thumb Code    40  bmt.o(.text)
    NUTL_PTB_NewPartTable                    0x80017007   Thumb Code   724  bmt.o(.text)
    NUTL_PTB_Update                          0x800172db   Thumb Code  1316  bmt.o(.text)
    nand_read_page_hwecc                     0x800177ff   Thumb Code    42  bmt.o(.text)
    find_mirror_pt_from_bottom               0x80017829   Thumb Code   212  bmt.o(.text)
    load_exist_part_tab                      0x800178fd   Thumb Code   586  bmt.o(.text)
    SDMMC_PTB_NewPartTable                   0x80017b47   Thumb Code   664  bmt.o(.text)
    SDMMC_PTB_Update                         0x80017ddf   Thumb Code   264  bmt.o(.text)
    load_exist_part_tab_sdmmc                0x80017ee7   Thumb Code   300  bmt.o(.text)
    get_part                                 0x80018013   Thumb Code    90  bmt.o(.text)
    partition_get_offset                     0x8001806d   Thumb Code    24  bmt.o(.text)
    partition_get_size                       0x80018085   Thumb Code    24  bmt.o(.text)
    get_bmt_ptr                              0x8001809d   Thumb Code     4  bmt.o(.text)
    NFB_Image_SearchLastBlockInBootLoader    0x80018265   Thumb Code   282  main_nand_internal.o(.text)
    NFB_ENFB_Init                            0x8001837f   Thumb Code    62  main_nand_internal.o(.text)
    NFB_ENFB_CreateMappingTable              0x800183bd   Thumb Code   322  main_nand_internal.o(.text)
    NFB_SyncImageSpace                       0x800184ff   Thumb Code   304  main_nand_internal.o(.text)
    NFB_SyncImageList                        0x8001862f   Thumb Code   164  main_nand_internal.o(.text)
    NFB_ConstructImageList                   0x800186d3   Thumb Code    82  main_nand_internal.o(.text)
    NFB_UpdateImageListInPrimaryMAUI         0x80018725   Thumb Code   196  main_nand_internal.o(.text)
    NFB_UpdateILB                            0x800187e9   Thumb Code   392  main_nand_internal.o(.text)
    NFB_DualBL_UpdateILB_Main                0x80018971   Thumb Code    66  main_nand_internal.o(.text)
    NFB_DualBL_UpdateILB_Factory             0x800189b3   Thumb Code   192  main_nand_internal.o(.text)
    NFB_DualBL_UpdateILB_EndUser             0x80018a73   Thumb Code   394  main_nand_internal.o(.text)
    NFB_UpdateImageList                      0x80018bfd   Thumb Code   224  main_nand_internal.o(.text)
    NFB_CheckImagelist                       0x80018cdd   Thumb Code   252  main_nand_internal.o(.text)
    NFB_SearchImagelist                      0x80018dd9   Thumb Code    38  main_nand_internal.o(.text)
    NFB_RetrieveImagelist                    0x80018dff   Thumb Code   220  main_nand_internal.o(.text)
    NFB_RetrieveImageInfo                    0x80018edb   Thumb Code   302  main_nand_internal.o(.text)
    NFB_FindImageList                        0x80019009   Thumb Code   444  main_nand_internal.o(.text)
    NFB_Image_ReturnError                    0x800191c5   Thumb Code    22  main_nand_internal.o(.text)
    NFB_Image_ReturnErrorStatus              0x800191db   Thumb Code    30  main_nand_internal.o(.text)
    RAM_DUMP                                 0x80019219   Thumb Code   168  test_main.o(.text)
    NAND_Pattern_Test                        0x800192c1   Thumb Code   588  test_main.o(.text)
    SDMMC_Pattern_Test                       0x8001950d   Thumb Code   402  test_main.o(.text)
    Memory_Test_CMD                          0x8001969f   Thumb Code   814  test_main.o(.text)
    USB_Init_Device_Status                   0x800199d5   Thumb Code   208  dl_usb.o(.text)
    USB_Register_EP0_RxHdlr                  0x80019aa5   Thumb Code    10  dl_usb.o(.text)
    USB_Generate_EP0Data                     0x80019aaf   Thumb Code    24  dl_usb.o(.text)
    USB_Init                                 0x80019ee3   Thumb Code    78  dl_usb.o(.text)
    USB_Enable_HS                            0x8001a059   Thumb Code    10  dl_usb_drv.o(.text)
    USB_Reset_FIFO                           0x8001a063   Thumb Code    10  dl_usb_drv.o(.text)
    USB_Init_Drv_Info                        0x8001a06d   Thumb Code    54  dl_usb_drv.o(.text)
    USB_ResetDrv_Info                        0x8001a0a3   Thumb Code    28  dl_usb_drv.o(.text)
    USB_Register_Drv_Info                    0x8001a0bf   Thumb Code    36  dl_usb_drv.o(.text)
    USB_Get_EP_Stall_Status                  0x8001a0e3   Thumb Code    18  dl_usb_drv.o(.text)
    USB_Set_DP_Pull_High                     0x8001a0f5   Thumb Code    24  dl_usb_drv.o(.text)
    USB_Reset_Drv                            0x8001a10d   Thumb Code    48  dl_usb_drv.o(.text)
    USB_EP0En                                0x8001a13d   Thumb Code    28  dl_usb_drv.o(.text)
    USB_EnSysIntr                            0x8001a159   Thumb Code    18  dl_usb_drv.o(.text)
    USB_Initialize_Drv                       0x8001a16b   Thumb Code    32  dl_usb_drv.o(.text)
    USB_SetAddress                           0x8001a18b   Thumb Code    12  dl_usb_drv.o(.text)
    USB_ReadAddress                          0x8001a197   Thumb Code    10  dl_usb_drv.o(.text)
    USB_InEPInit                             0x8001a1a1   Thumb Code    74  dl_usb_drv.o(.text)
    USB_OutEPInit                            0x8001a1eb   Thumb Code    70  dl_usb_drv.o(.text)
    USB_OutEP_PK_SIZE                        0x8001a231   Thumb Code     8  dl_usb_drv.o(.text)
    USB_InEPEn                               0x8001a239   Thumb Code    58  dl_usb_drv.o(.text)
    USB_OutEPEn                              0x8001a273   Thumb Code    58  dl_usb_drv.o(.text)
    USB_EPFIFORead                           0x8001a2ad   Thumb Code    66  dl_usb_drv.o(.text)
    USB_EPFIFOWrite                          0x8001a2ef   Thumb Code    54  dl_usb_drv.o(.text)
    USB_CtrlEPStall                          0x8001a325   Thumb Code    82  dl_usb_drv.o(.text)
    USB_Get_EP0_Status                       0x8001a377   Thumb Code    38  dl_usb_drv.o(.text)
    USB_Update_EP0_State                     0x8001a39d   Thumb Code    64  dl_usb_drv.o(.text)
    USB_EP0_Pkt_Len                          0x8001a3dd   Thumb Code    18  dl_usb_drv.o(.text)
    USB_EP_Bulk_In_Ready                     0x8001a3ef   Thumb Code    34  dl_usb_drv.o(.text)
    USB_EP_Poll_Bulk_In_Ready                0x8001a411   Thumb Code    14  dl_usb_drv.o(.text)
    USB_EP_Poll_Bulk_Out_Intr                0x8001a41f   Thumb Code    24  dl_usb_drv.o(.text)
    USB_EP_Out_Pkt_Len                       0x8001a437   Thumb Code    78  dl_usb_drv.o(.text)
    USB_EP_Bulk_Out_Ready                    0x8001a485   Thumb Code    38  dl_usb_drv.o(.text)
    USB_HISR                                 0x8001a4ab   Thumb Code   208  dl_usb_drv.o(.text)
    USB_IS_High_Speed                        0x8001a57b   Thumb Code    18  dl_usb_drv.o(.text)
    USB_SetDPB                               0x8001a58d   Thumb Code    70  dl_usb_drv.o(.text)
    USB2COM_Setup_PORT                       0x8001a5dd   Thumb Code    62  dl_usbacm_adap.o(.text)
    Check_And_Change_Endpoint                0x8001a61b   Thumb Code    52  dl_usbacm_adap.o(.text)
    USB2COM_Init                             0x8001a64f   Thumb Code   110  dl_usbacm_adap.o(.text)
    USB2COM_PurgeFIFO                        0x8001a6bd   Thumb Code    12  dl_usbacm_adap.o(.text)
    USB2COM_SetBaudRate                      0x8001a6c9   Thumb Code    12  dl_usbacm_adap.o(.text)
    USB2COM_Get_USB_MAX_PACKET               0x8001a6d5   Thumb Code    18  dl_usbacm_adap.o(.text)
    USB2COM_PutByte                          0x8001a6e7   Thumb Code    50  dl_usbacm_adap.o(.text)
    USB2COM_PutByte_Buffer                   0x8001a719   Thumb Code   208  dl_usbacm_adap.o(.text)
    USB2COM_PutByte_Complete                 0x8001a7e9   Thumb Code    76  dl_usbacm_adap.o(.text)
    USB2COM_GetByte                          0x8001a835   Thumb Code    54  dl_usbacm_adap.o(.text)
    USB2COM_GetData16                        0x8001a86b   Thumb Code    48  dl_usbacm_adap.o(.text)
    USB2COM_PutData16                        0x8001a89b   Thumb Code    76  dl_usbacm_adap.o(.text)
    USB2COM_GetData32                        0x8001a8e7   Thumb Code    46  dl_usbacm_adap.o(.text)
    USB2COM_PutData32                        0x8001a915   Thumb Code    76  dl_usbacm_adap.o(.text)
    USB2COM_GetData64                        0x8001a961   Thumb Code    16  dl_usbacm_adap.o(.text)
    USB2COM_PutData64                        0x8001a971   Thumb Code    18  dl_usbacm_adap.o(.text)
    USB2COM_GetByteStatus                    0x8001a983   Thumb Code    76  dl_usbacm_adap.o(.text)
    USB2COM_GetByte_Buffer                   0x8001a9cf   Thumb Code   194  dl_usbacm_adap.o(.text)
    USB2COM_SetupDL                          0x8001aa91   Thumb Code    74  dl_usbacm_adap.o(.text)
    USB2COM_SetErrThreshold                  0x8001aadb   Thumb Code     6  dl_usbacm_adap.o(.text)
    COM_Is_USB_Download_Mode                 0x8001aae1   Thumb Code    12  dl_usbacm_adap.o(.text)
    uart_set_baudrate                        0x8001ab29   Thumb Code   142  UART.o(.text)
    uart_init                                0x8001abb7   Thumb Code    70  UART.o(.text)
    uart_reinit                              0x8001abfd   Thumb Code    24  UART.o(.text)
    uart_getc                                0x8001ac15   Thumb Code    66  UART.o(.text)
    uart_getc_status                         0x8001ac57   Thumb Code    50  UART.o(.text)
    uart_gets                                0x8001ac89   Thumb Code    34  UART.o(.text)
    uart_putc                                0x8001acab   Thumb Code    12  UART.o(.text)
    uart_puts                                0x8001acb7   Thumb Code    30  UART.o(.text)
    uart_getw                                0x8001acd5   Thumb Code    48  UART.o(.text)
    uart_putw                                0x8001ad05   Thumb Code    38  UART.o(.text)
    uart_getl                                0x8001ad2b   Thumb Code    46  UART.o(.text)
    uart_putl                                0x8001ad59   Thumb Code    38  UART.o(.text)
    uart_getll                               0x8001ad7f   Thumb Code    50  UART.o(.text)
    uart_putll                               0x8001adb1   Thumb Code    46  UART.o(.text)
    COM_Delay                                0x8001addf   Thumb Code    38  UART.o(.text)
    uart_purge                               0x8001ae05   Thumb Code    22  UART.o(.text)
    uart_get_baud                            0x8001ae1b   Thumb Code    18  UART.o(.text)
    UART1_Init                               0x8001ae2d   Thumb Code    34  UART.o(.text)
    UART1_GetByte                            0x8001ae4f   Thumb Code     8  UART.o(.text)
    UART1_GetByteStatus                      0x8001ae57   Thumb Code    10  UART.o(.text)
    UART1_GetByte_Buffer                     0x8001ae61   Thumb Code    12  UART.o(.text)
    UART1_PutByte                            0x8001ae6d   Thumb Code    10  UART.o(.text)
    UART1_PutByte_Buffer                     0x8001ae77   Thumb Code    12  UART.o(.text)
    UART1_PutByte_Complete                   0x8001ae83   Thumb Code    10  UART.o(.text)
    UART1_GetData16                          0x8001ae8d   Thumb Code     8  UART.o(.text)
    UART1_PutData16                          0x8001ae95   Thumb Code    10  UART.o(.text)
    UART1_GetData32                          0x8001ae9f   Thumb Code     8  UART.o(.text)
    UART1_PutData32                          0x8001aea7   Thumb Code    10  UART.o(.text)
    UART1_GetData64                          0x8001aeb1   Thumb Code     8  UART.o(.text)
    UART1_PutData64                          0x8001aeb9   Thumb Code    12  UART.o(.text)
    UART1_PurgeFIFO                          0x8001aec5   Thumb Code     8  UART.o(.text)
    UART1_SetBaudRate                        0x8001aecd   Thumb Code    20  UART.o(.text)
    UART1_ReInit                             0x8001aee1   Thumb Code    28  UART.o(.text)
    UART1_SetErrThreshold                    0x8001aefd   Thumb Code    10  UART.o(.text)
    COM_Get_HW_Packet_Size                   0x8001af07   Thumb Code    20  UART.o(.text)
    COM_ReturnNAckStatus                     0x8001af1b   Thumb Code    22  UART.o(.text)
    GetFwVer                                 0x8001af8d   Thumb Code   110  get_fw_ver.o(.text)
    sb_init                                  0x8001b015   Thumb Code   186  sb_encode.o(.text)
    sb_enable                                0x8001b0cf   Thumb Code    12  sb_encode.o(.text)
    sb_reset_state                           0x8001b0db   Thumb Code     8  sb_encode.o(.text)
    sb_reset_counter                         0x8001b0e3   Thumb Code     8  sb_encode.o(.text)
    sb_is_usbdl4enduser                      0x8001b0eb   Thumb Code    18  sb_encode.o(.text)
    sb_is_uartdl4enduser                     0x8001b0fd   Thumb Code    18  sb_encode.o(.text)
    sb_enable_decrypt_image                  0x8001b10f   Thumb Code    20  sb_encode.o(.text)
    sb_disable_decrypt_image                 0x8001b123   Thumb Code    20  sb_encode.o(.text)
    sb_authenticate_image_hash_of_NOR        0x8001b137   Thumb Code   134  sb_encode.o(.text)
    sb_authenticate_image_hash_of_NFB        0x8001b1bd   Thumb Code   198  sb_encode.o(.text)
    sb_authenticate_image                    0x8001b283   Thumb Code   192  sb_encode.o(.text)
    sb_authenticate_NFB                      0x8001b343   Thumb Code   172  sb_encode.o(.text)
    sb_is_stop                               0x8001b3ef   Thumb Code   158  sb_encode.o(.text)
    UpdateFlashBySectorBoundary              0x8001b48d   Thumb Code   140  security.o(.text)
    SB_EngineProcess                         0x8001b519   Thumb Code    46  security.o(.text)
    IsInRange                                0x8001b547   Thumb Code    50  security.o(.text)
    GetBootStyle                             0x8001b579   Thumb Code     8  security.o(.text)
    GetFATRanges                             0x8001b581   Thumb Code   214  security.o(.text)
    GetFATRange                              0x8001b709   Thumb Code   118  security.o(.text)
    DownloadCompletenessCheck                0x8001b77f   Thumb Code    46  security.o(.text)
    GetProjectId                             0x8001b7ad   Thumb Code    38  security.o(.text)
    GetCustomerName                          0x8001b7d3   Thumb Code     4  security.o(.text)
    GetOnFlashRomInfo                        0x8001b7d7   Thumb Code     6  security.o(.text)
    GetPCInfoState                           0x8001b7dd   Thumb Code    50  security.o(.text)
    GetPCInfoAddr                            0x8001b80f   Thumb Code    48  security.o(.text)
    GetPCInfoSize                            0x8001b83f   Thumb Code    40  security.o(.text)
    GetPCInfoData                            0x8001b867   Thumb Code    90  security.o(.text)
    FindInfo                                 0x8001b8c1   Thumb Code    56  security.o(.text)
    FindBromSecGFH                           0x8001b8f9   Thumb Code    44  security.o(.text)
    IsSecUsbDlEnabled                        0x8001bbad   Thumb Code     6  security.o(.text)
    ReCheckSecUsbdlImageInfoCmd              0x8001bbb3   Thumb Code    40  security.o(.text)
    CheckSecUsbdlImageInfo                   0x8001bbdb   Thumb Code   844  security.o(.text)
    UpdateSecUsbdlImageOffset                0x8001bf27   Thumb Code     4  security.o(.text)
    InitSecureUsbDL                          0x8001bf2b   Thumb Code     2  security.o(.text)
    ReportSecUsbdlInfo                       0x8001bf2d   Thumb Code   434  security.o(.text)
    CheckSecInfoFromPC                       0x8001c0df   Thumb Code   106  security.o(.text)
    CheckNFBBootLoaderFeature                0x8001c149   Thumb Code   882  security.o(.text)
    CopyCustomNamToBL2                       0x8001c88d   Thumb Code     8  security.o(.text)
    IsSecRORange                             0x8001c895   Thumb Code   684  security.o(.text)
    IsValidDownloadRange64                   0x8001cb41   Thumb Code   218  security.o(.text)
    IsValidDownloadRange                     0x8001cc1b   Thumb Code     8  security.o(.text)
    IsValidReadbackRange64                   0x8001cc23   Thumb Code   194  security.o(.text)
    IsValidReadbackRange                     0x8001cce5   Thumb Code     8  security.o(.text)
    IsValidFormatRange64                     0x8001cced   Thumb Code   214  security.o(.text)
    IsValidFormatRange                       0x8001cdc3   Thumb Code     8  security.o(.text)
    NFB_IsValidDownloadRange64               0x8001ce83   Thumb Code   188  security.o(.text)
    NFB_IsValidDownloadRange                 0x8001cf3f   Thumb Code     8  security.o(.text)
    NFB_IsValidReadbackRange64               0x8001cf47   Thumb Code   166  security.o(.text)
    NFB_IsValidReadbackRange                 0x8001cfed   Thumb Code     8  security.o(.text)
    NFB_IsValidFormatRange64                 0x8001cff5   Thumb Code   166  security.o(.text)
    NFB_IsValidFormatRange                   0x8001d09b   Thumb Code     8  security.o(.text)
    IsCodeDownloadForbidden                  0x8001d0a3   Thumb Code    26  security.o(.text)
    SetSoftwareOTP                           0x8001d0bd   Thumb Code    32  security.o(.text)
    SetMAUICodeUpdated                       0x8001d0dd   Thumb Code    10  security.o(.text)
    SetBLCodeUpdated                         0x8001d0e7   Thumb Code    10  security.o(.text)
    SecureUsbDL_GetCustName                  0x8001d0f1   Thumb Code    26  security.o(.text)
    SecurityInfoUpdate                       0x8001d10b   Thumb Code    32  security.o(.text)
    GetSecurityVersion                       0x8001d12b   Thumb Code    24  security.o(.text)
    SecurityPreProcess                       0x8001d143   Thumb Code    54  security.o(.text)
    SecurityWrite                            0x8001d179   Thumb Code   114  security.o(.text)
    SecurityPostProcess                      0x8001d1eb   Thumb Code    46  security.o(.text)
    HashInit                                 0x8001d219   Thumb Code    16  security.o(.text)
    HashUpdate                               0x8001d229   Thumb Code    16  security.o(.text)
    HashDone                                 0x8001d239   Thumb Code    26  security.o(.text)
    Hash                                     0x8001d253   Thumb Code    52  security.o(.text)
    sec_secro_read                           0x8001d3dd   Thumb Code   178  sec_secro.o(.text)
    search_secro                             0x8001d48f   Thumb Code   338  sec_secro.o(.text)
    sec_secro_post_proc                      0x8001d621   Thumb Code  1960  sec_secro.o(.text)
    is_sw_sec_boot_format_allowed            0x8001ddc9   Thumb Code   118  sec_secro.o(.text)
    is_sw_sec_boot_dl_1st_loader_allowed     0x8001de3f   Thumb Code    98  sec_secro.o(.text)
    is_sw_sec_boot_dl_images_allowed         0x8001dea1   Thumb Code    98  sec_secro.o(.text)
    is_sw_sec_boot_chk_img_by_pass           0x8001df03   Thumb Code  1300  sec_secro.o(.text)
    SecureUsbDL_CheckBypass                  0x8001e4d5   Thumb Code   412  sec_flashtool_cfg.o(.text)
    do_sw_rx_dq_dqs_calib                    0x8001e67d   Thumb Code  1108  dramc_calib.o(.text)
    do_sw_tx_dq_dqs_calib                    0x8001ebff   Thumb Code  1400  dramc_calib.o(.text)
    dramc_calib                              0x8001f177   Thumb Code  1560  dramc_calib.o(.text)
    efi_guidcpy                              0x8001f80b   Thumb Code   122  efi.o(.text)
    write_primary_gpt                        0x8001fa1d   Thumb Code   140  efi.o(.text)
    write_secondary_gpt                      0x8001faa9   Thumb Code    62  efi.o(.text)
    read_gpt                                 0x8001ff4d   Thumb Code    88  efi.o(.text)
    GPT_SetMark2                             0x80020635   Thumb Code     2  dummy.o(.text)
    pwrap_wacs2                              0x80020767   Thumb Code   194  pmic_wrap_init.o(.text)
    pwrap_read                               0x80020829   Thumb Code    10  pmic_wrap_init.o(.text)
    pwrap_write                              0x80020833   Thumb Code    10  pmic_wrap_init.o(.text)
    pwrap_init                               0x80020ecf   Thumb Code   766  pmic_wrap_init.o(.text)
    pwrap_init_DA                            0x800211cd   Thumb Code    82  pmic_wrap_init.o(.text)
    rtc_bbpu_power_down                      0x800214f3   Thumb Code    50  rtc.o(.text)
    rtc_bbpu_power_on                        0x80021525   Thumb Code    90  rtc.o(.text)
    MT8127_set_RTC_Base_Reg                  0x8002157f   Thumb Code    42  rtc.o(.text)
    mmc_dump_ext_csd                         0x800217b5   Thumb Code  3046  mmc_core.o(.text)
    mmc_get_host                             0x8002239b   Thumb Code  1022  mmc_core.o(.text)
    mmc_get_card                             0x80022799   Thumb Code    16  mmc_core.o(.text)
    mmc_go_idle                              0x800227e5   Thumb Code    30  mmc_core.o(.text)
    mmc_send_status                          0x80022803   Thumb Code    46  mmc_core.o(.text)
    mmc_select_card                          0x800230fb   Thumb Code    36  mmc_core.o(.text)
    mmc_switch                               0x8002311f   Thumb Code   128  mmc_core.o(.text)
    mmc_switch_hs                            0x800232e3   Thumb Code    72  mmc_core.o(.text)
    mmc_read_ext_csd                         0x8002348b   Thumb Code   178  mmc_core.o(.text)
    mmc_set_write_prot                       0x8002353d   Thumb Code    58  mmc_core.o(.text)
    mmc_send_write_prot                      0x80023577   Thumb Code   104  mmc_core.o(.text)
    mmc_send_write_prot_type                 0x800235df   Thumb Code   102  mmc_core.o(.text)
    mmc_erase_is_support                     0x80023645   Thumb Code   296  mmc_core.o(.text)
    mmc_erase_start                          0x8002376d   Thumb Code    80  mmc_core.o(.text)
    mmc_erase_end                            0x800237bd   Thumb Code    78  mmc_core.o(.text)
    mmc_erase                                0x8002380b   Thumb Code   130  mmc_core.o(.text)
    mmc_set_clock                            0x8002388d   Thumb Code    28  mmc_core.o(.text)
    mmc_set_ext_csd                          0x800238a9   Thumb Code    66  mmc_core.o(.text)
    mmc_set_card_detect                      0x800238eb   Thumb Code    36  mmc_core.o(.text)
    mmc_set_blk_length                       0x8002390f   Thumb Code    50  mmc_core.o(.text)
    mmc_set_bus_width                        0x80023941   Thumb Code   260  mmc_core.o(.text)
    mmc_set_erase_grp_def                    0x80023a45   Thumb Code    38  mmc_core.o(.text)
    mmc_set_part_config                      0x80023a6b   Thumb Code    36  mmc_core.o(.text)
    mmc_dev_bread                            0x80023a8f   Thumb Code   152  mmc_core.o(.text)
    mmc_block_read                           0x80023b27   Thumb Code   422  mmc_core.o(.text)
    mmc_block_write                          0x80023d93   Thumb Code   172  mmc_core.o(.text)
    mmc_set_user_wp                          0x80023e3f   Thumb Code    48  mmc_core.o(.text)
    mmc_stuff_buff                           0x80023e6f   Thumb Code    64  mmc_core.o(.text)
    mmc_get_sandisk_fwid                     0x80023eaf   Thumb Code   240  mmc_core.o(.text)
    mmc_block_erase                          0x80023f9f   Thumb Code   738  mmc_core.o(.text)
    mmc_init_mem_card                        0x80024281   Thumb Code   666  mmc_core.o(.text)
    mmc_init_card                            0x8002451b   Thumb Code   168  mmc_core.o(.text)
    mmc_init_host                            0x800245c3   Thumb Code    26  mmc_core.o(.text)
    mmc_hard_reset                           0x800245dd   Thumb Code     4  mmc_core.o(.text)
    mmc_init                                 0x800245e1   Thumb Code    86  mmc_core.o(.text)
    SDMMC_Download_BL_GetHdrBlkLocation_Internal 0x80024939   Thumb Code    96  sdmmc_download_internal.o(.text)
    SDMMC_Download_BL_EraseHeaderBlock_Internal 0x80024999   Thumb Code    90  sdmmc_download_internal.o(.text)
    SDMMC_Download_BL_CreateHeaderBlock_Internal 0x800249f3   Thumb Code   188  sdmmc_download_internal.o(.text)
    SDMMC_Download_BL_CalNextBeginAddr_Internal 0x80024aaf   Thumb Code    30  sdmmc_download_internal.o(.text)
    SDMMC_Download_BL_UpdateBeginAndBoundaryAddr 0x80024acd   Thumb Code    88  sdmmc_download_internal.o(.text)
    SDMMC_Download_BL_CheckProfile_Internal  0x80024b25   Thumb Code   100  sdmmc_download_internal.o(.text)
    SDMMC_Download_BL_WritePacketToFlash_Internal 0x80024b89   Thumb Code   260  sdmmc_download_internal.o(.text)
    SDMMC_Download_BL_PostProcess_Internal   0x80024c8d   Thumb Code    68  sdmmc_download_internal.o(.text)
    NFB_BL_ECC_Encode                        0x80024d5d   Thumb Code    98  nand_download_internal.o(.text)
    NAND_Download_BL_EraseHeaderBlock_Internal 0x80024dbf   Thumb Code   342  nand_download_internal.o(.text)
    NAND_Download_BL_CheckHeaderBlock_Internal 0x80024f15   Thumb Code   276  nand_download_internal.o(.text)
    NAND_Download_BL_GetBootRegionStartAddr  0x80025029   Thumb Code   100  nand_download_internal.o(.text)
    NAND_Download_BL_CreateHeaderBlock_Internal 0x80025533   Thumb Code   436  nand_download_internal.o(.text)
    NAND_Download_BL_CalNextBeginAddr_Internal 0x800256e7   Thumb Code   180  nand_download_internal.o(.text)
    NAND_Download_BL_CalBoundaryAddr         0x8002579b   Thumb Code   130  nand_download_internal.o(.text)
    NAND_Download_BL_UpdateBeginAndBoundaryAddr 0x8002581d   Thumb Code    90  nand_download_internal.o(.text)
    NAND_Download_BL_CheckProfile_Internal   0x80025877   Thumb Code   134  nand_download_internal.o(.text)
    NAND_Download_BL_WritePacketToFlash_Internal_UpdateBRLYT 0x800258fd   Thumb Code   120  nand_download_internal.o(.text)
    NAND_Download_BL_WritePacketToFlash_Internal 0x80025975   Thumb Code   562  nand_download_internal.o(.text)
    NAND_Download_BL_NFB_Header              0x80025ba7   Thumb Code   450  nand_download_internal.o(.text)
    NAND_Download_BL_PL                      0x80025d69   Thumb Code   340  nand_download_internal.o(.text)
    TEST_DataBus                             0x80025fa9   Thumb Code   140  test_bus.o(.text)
    TEST_AddrBus                             0x80026035   Thumb Code   324  test_bus.o(.text)
    RAM_Pattern_Test_8Bit                    0x8002617d   Thumb Code    80  test_ext_sram.o(.text)
    RAM_Pattern_Test_16Bit                   0x800261cd   Thumb Code   112  test_ext_sram.o(.text)
    RAM_Pattern_Test_32Bit                   0x8002623d   Thumb Code   106  test_ext_sram.o(.text)
    RAM_Inc_Dec_Test_8Bit                    0x800262a7   Thumb Code   130  test_ext_sram.o(.text)
    RAM_Inc_Dec_Test_16Bit                   0x80026329   Thumb Code   176  test_ext_sram.o(.text)
    RAM_Inc_Dec_Test_32Bit                   0x800263d9   Thumb Code   164  test_ext_sram.o(.text)
    RAM_Complex_Test                         0x8002647d   Thumb Code   954  test_ext_sram.o(.text)
    USB_Dbg_Trace                            0x80026849   Thumb Code     2  dl_usb_debug_tool.o(.text)
    USB_Config_Type                          0x8002684d   Thumb Code    64  dl_usb_mode.o(.text)
    USB_Change_Interface_Sequence            0x8002688d   Thumb Code    38  dl_usb_mode.o(.text)
    USB_Register_CreateFunc                  0x800268ed   Thumb Code    30  dl_usb_resource.o(.text)
    USB_Register_Device_Code                 0x8002690b   Thumb Code    48  dl_usb_resource.o(.text)
    USB_DeRegister_CreateFunc                0x8002693b   Thumb Code     8  dl_usb_resource.o(.text)
    USB_DeRegister_Device_Code               0x80026943   Thumb Code    10  dl_usb_resource.o(.text)
    USB_Get_Intr_Ep                          0x8002694d   Thumb Code    36  dl_usb_resource.o(.text)
    USB_Get_BulkIn_Ep                        0x80026971   Thumb Code    50  dl_usb_resource.o(.text)
    USB_Get_BulkOut_Ep                       0x800269a3   Thumb Code    50  dl_usb_resource.o(.text)
    USB_Set_Intr_Ep                          0x800269d5   Thumb Code     6  dl_usb_resource.o(.text)
    USB_Set_BulkIn_Ep                        0x800269db   Thumb Code     6  dl_usb_resource.o(.text)
    USB_Set_BulkOut_Ep                       0x800269e1   Thumb Code     6  dl_usb_resource.o(.text)
    USB_Get_Interface_Number                 0x800269e7   Thumb Code    44  dl_usb_resource.o(.text)
    USB_Get_String_Number                    0x80026a13   Thumb Code    38  dl_usb_resource.o(.text)
    USB_Software_Create                      0x80026a39   Thumb Code   576  dl_usb_resource.o(.text)
    USB_Software_Speed_Init                  0x80026c79   Thumb Code   442  dl_usb_resource.o(.text)
    USB_Software_Init                        0x80026e33   Thumb Code    72  dl_usb_resource.o(.text)
    USB_Acm_CommIf_Create                    0x80026f83   Thumb Code   214  dl_usbacm_drv.o(.text)
    USB_Acm_CommIf_Reset                     0x80027059   Thumb Code    12  dl_usbacm_drv.o(.text)
    USB_Acm_CommIf_Speed_Reset               0x80027065   Thumb Code    16  dl_usbacm_drv.o(.text)
    USB_Acm_DataIf_Create                    0x800270d7   Thumb Code   264  dl_usbacm_drv.o(.text)
    USB_Acm_DataIf_Reset                     0x800271df   Thumb Code    42  dl_usbacm_drv.o(.text)
    USB_Acm_DataIf_Speed_Reset               0x80027209   Thumb Code    48  dl_usbacm_drv.o(.text)
    USB_Init_Acm_Status                      0x80027239   Thumb Code    18  dl_usbacm_drv.o(.text)
    mt6582_usb_phy_poweron                   0x800272b9   Thumb Code    86  usbphy.o(.text)
    mt6582_usb_phy_savecurrent               0x8002730f   Thumb Code   140  usbphy.o(.text)
    mt6582_usb_phy_recover                   0x8002739b   Thumb Code   122  usbphy.o(.text)
    MD5Init                                  0x80027419   Thumb Code    28  md5.o(.text)
    MD5Update                                0x80027acd   Thumb Code   112  md5.o(.text)
    MD5Final                                 0x80027b6f   Thumb Code    76  md5.o(.text)
    get_ul                                   0x80027c45   Thumb Code    22  msha1.o(.text)
    set_ul                                   0x80027c5b   Thumb Code    18  msha1.o(.text)
    cal_S                                    0x80027c6d   Thumb Code     6  msha1.o(.text)
    cal_A2                                   0x80027c73   Thumb Code     6  msha1.o(.text)
    cal_P                                    0x80027c79   Thumb Code    82  msha1.o(.text)
    hash_starts                              0x80027ccb   Thumb Code    32  msha1.o(.text)
    hash_update                              0x80027fbd   Thumb Code   114  msha1.o(.text)
    hash_finish                              0x8002802f   Thumb Code   140  msha1.o(.text)
    sha1                                     0x800280bb   Thumb Code    48  msha1.o(.text)
    sec_init                                 0x800280ed   Thumb Code     4  sec_dl.o(.text)
    sec_post_proc                            0x800280f1   Thumb Code    96  sec_dl.o(.text)
    sec_img_post_proc                        0x80028151   Thumb Code    56  sec_dl.o(.text)
    sec_img_info_check                       0x80028189   Thumb Code   110  sec_dl.o(.text)
    sec_img_info_add                         0x80028239   Thumb Code   110  sec_info.o(.text)
    sec_cfg_find                             0x800282cd   Thumb Code   172  seccfg.o(.text)
    sec_cfg_create                           0x80028379   Thumb Code    74  seccfg.o(.text)
    get_seccfg_ver                           0x800284a9   Thumb Code    32  seccfg_ver.o(.text)
    set_seccfg_ver                           0x800284c9   Thumb Code    32  seccfg_ver.o(.text)
    sec_enc_seccfg                           0x80028511   Thumb Code    78  seccfg_crypto.o(.text)
    sec_dec_seccfg                           0x8002855f   Thumb Code    78  seccfg_crypto.o(.text)
    get_seccfg_cipher_len                    0x800285ad   Thumb Code    44  seccfg_crypto.o(.text)
    sec_erase_dev                            0x8002864d   Thumb Code   342  sec_dev.o(.text)
    sec_write_dev                            0x800287a3   Thumb Code   574  sec_dev.o(.text)
    sec_read_dev                             0x800289e1   Thumb Code   886  sec_dev.o(.text)
    sec_decode_key                           0x80028e05   Thumb Code    32  sec_key.o(.text)
    mcpy                                     0x80028e25   Thumb Code    20  sec_util.o(.text)
    mcmp                                     0x80028e39   Thumb Code    28  sec_util.o(.text)
    scmp                                     0x80028e55   Thumb Code    24  sec_util.o(.text)
    dump_buf                                 0x80028e6d   Thumb Code    50  sec_util.o(.text)
    shdr_magic                               0x80028ead   Thumb Code    40  sec_hdr.o(.text)
    shdr_cust_name                           0x80028ed5   Thumb Code    40  sec_hdr.o(.text)
    shdr_img_ver                             0x80028efd   Thumb Code    44  sec_hdr.o(.text)
    shdr_img_len                             0x80028f29   Thumb Code    48  sec_hdr.o(.text)
    shdr_img_offset                          0x80028f59   Thumb Code    44  sec_hdr.o(.text)
    shdr_sign_len                            0x80028f85   Thumb Code    44  sec_hdr.o(.text)
    shdr_sign_offset                         0x80028fb1   Thumb Code    44  sec_hdr.o(.text)
    shdr_sig_len                             0x80028fdd   Thumb Code    48  sec_hdr.o(.text)
    shdr_sig_offset                          0x8002900d   Thumb Code    52  sec_hdr.o(.text)
    set_shdr_sign_len                        0x80029041   Thumb Code    38  sec_hdr.o(.text)
    set_shdr_sign_offset                     0x80029067   Thumb Code    38  sec_hdr.o(.text)
    get_shdr_ver                             0x8002908d   Thumb Code    38  sec_hdr.o(.text)
    set_shdr_ver                             0x800290b3   Thumb Code    34  sec_hdr.o(.text)
    is_shdr_ver4                             0x800290d5   Thumb Code    16  sec_hdr.o(.text)
    is_shdr_ver3                             0x800290e5   Thumb Code    16  sec_hdr.o(.text)
    SEJ_V3_Init                              0x80029119   Thumb Code   156  sej_hk.o(.text)
    SEJ_V3_Run                               0x800291b5   Thumb Code    70  sej_hk.o(.text)
    SEJ_V3_Terminate                         0x800291fb   Thumb Code    24  sej_hk.o(.text)
    SEJ_SWOTP_Set                            0x80029213   Thumb Code    24  sej_hk.o(.text)
    SEJ_SWOTP_Clear                          0x8002922b   Thumb Code    20  sej_hk.o(.text)
    sp_swotp_set                             0x80029249   Thumb Code    22  sej_export.o(.text)
    sp_swotp_clean                           0x8002925f   Thumb Code    10  sej_export.o(.text)
    sp_sej_enc                               0x80029269   Thumb Code    76  sej_export.o(.text)
    sp_sej_dec                               0x800292b5   Thumb Code    74  sej_export.o(.text)
    sec_sej_key_init                         0x800292ff   Thumb Code    74  sej_export.o(.text)
    CHE_sha1_Init                            0x800293a9   Thumb Code    56  sha1_sw.o(.text)
    CHE_shaTransform                         0x800293e1   Thumb Code   372  sha1_sw.o(.text)
    CHE_sha1_append                          0x80029555   Thumb Code   108  sha1_sw.o(.text)
    CHE_shaStrUpdate                         0x800295c1   Thumb Code    24  sha1_sw.o(.text)
    CHE_shapad                               0x800295d9   Thumb Code    90  sha1_sw.o(.text)
    CHE_shaBytes                             0x80029633   Thumb Code    44  sha1_sw.o(.text)
    CHE_shaString                            0x8002965f   Thumb Code    54  sha1_sw.o(.text)
    CHE_sha1_finish                          0x80029695   Thumb Code    84  sha1_sw.o(.text)
    CHE_shaHash                              0x800296e9   Thumb Code    38  sha1_sw.o(.text)
    sec_lib_sha1                             0x8002970f   Thumb Code    38  sha1_sw.o(.text)
    dramc_ta1                                0x80029769   Thumb Code   148  dramc_dle_cal.o(.text)
    dle_factor_handler                       0x800297fd   Thumb Code   150  dramc_dle_cal.o(.text)
    ett_print_dle_banner                     0x80029893   Thumb Code    56  dramc_dle_cal.o(.text)
    ett_print_dle_result                     0x800298cb   Thumb Code    94  dramc_dle_cal.o(.text)
    ett_print_dle_before_each_round_of_loop_zero 0x80029929   Thumb Code     2  dramc_dle_cal.o(.text)
    ett_print_dle_after_each_round_of_loop_zero 0x8002992b   Thumb Code     6  dramc_dle_cal.o(.text)
    ett_print_dle_before_start_loop_zero     0x80029931   Thumb Code    24  dramc_dle_cal.o(.text)
    ett_print_dle_after_finish_loop_n        0x80029949   Thumb Code    12  dramc_dle_cal.o(.text)
    ett_calc_dle_opt_value                   0x80029955   Thumb Code     2  dramc_dle_cal.o(.text)
    do_dle_calib                             0x80029957   Thumb Code   176  dramc_dle_cal.o(.text)
    ddr3_x16_x32_auto_adjust                 0x80029ac1   Thumb Code    90  dramc_dqs_gw.o(.text)
    ett_recursive_factor_tuning              0x80029b1b   Thumb Code   114  dramc_dqs_gw.o(.text)
    dqsi_gw_dly_coarse_factor_handler_rank1  0x80029b8d   Thumb Code   102  dramc_dqs_gw.o(.text)
    dqsi_gw_dly_coarse_factor_handler        0x80029bf3   Thumb Code   180  dramc_dqs_gw.o(.text)
    dqsi_gw_dly_fine_factor_handler_rank1    0x80029ca7   Thumb Code   128  dramc_dqs_gw.o(.text)
    dqsi_gw_dly_fine_factor_handler          0x80029d27   Thumb Code   128  dramc_dqs_gw.o(.text)
    Sequence_Read                            0x80029da7   Thumb Code   562  dramc_dqs_gw.o(.text)
    Do_Read_Test_DDR3                        0x80029fd9   Thumb Code   114  dramc_dqs_gw.o(.text)
    Do_Read_Test_DDR2                        0x8002a04b   Thumb Code    88  dramc_dqs_gw.o(.text)
    cpu_read_test                            0x8002a0a3   Thumb Code   492  dramc_dqs_gw.o(.text)
    ett_print_dqs_gw_banner                  0x8002a28f   Thumb Code    56  dramc_dqs_gw.o(.text)
    ett_print_dqs_gw_before_start_loop_zero  0x8002a2c7   Thumb Code    22  dramc_dqs_gw.o(.text)
    ett_print_dqs_gw_before_each_round_of_loop_zero 0x8002a2dd   Thumb Code    56  dramc_dqs_gw.o(.text)
    ett_print_dqs_gw_after_each_round_of_loop_zero 0x8002a493   Thumb Code     2  dramc_dqs_gw.o(.text)
    ett_calc_dqs_gw_opt_value                0x8002a495   Thumb Code     2  dramc_dqs_gw.o(.text)
    ett_print_dqs_gw_fine_after_finish_loop_zero 0x8002a497   Thumb Code    14  dramc_dqs_gw.o(.text)
    do_dqs_gw_calib_1                        0x8002a663   Thumb Code    54  dramc_dqs_gw.o(.text)
    msdc_cal_checksum                        0x8002ab39   Thumb Code    72  msdc.o(.text)
    msdc_alloc_gpd                           0x8002ab81   Thumb Code    90  msdc.o(.text)
    msdc_alloc_bd                            0x8002abdb   Thumb Code    92  msdc.o(.text)
    msdc_queue_bd                            0x8002ac37   Thumb Code    48  msdc.o(.text)
    msdc_add_gpd                             0x8002ac67   Thumb Code    68  msdc.o(.text)
    msdc_reset_gpd                           0x8002acab   Thumb Code    18  msdc.o(.text)
    msdc_set_timeout                         0x8002acbd   Thumb Code    60  msdc.o(.text)
    msdc_set_blklen                          0x8002acf9   Thumb Code    52  msdc.o(.text)
    msdc_set_blknum                          0x8002ad2d   Thumb Code     6  msdc.o(.text)
    msdc_set_autocmd                         0x8002ad33   Thumb Code    16  msdc.o(.text)
    msdc_abort                               0x8002ad43   Thumb Code   100  msdc.o(.text)
    msdc_intr_wait                           0x8002ada7   Thumb Code    16  msdc.o(.text)
    msdc_wait_rsp                            0x8002adb7   Thumb Code   234  msdc.o(.text)
    msdc_send_cmd                            0x8002aea1   Thumb Code   396  msdc.o(.text)
    msdc_abort_handler                       0x8002b02d   Thumb Code   490  msdc.o(.text)
    msdc_tune_cmdrsp                         0x8002b217   Thumb Code   516  msdc.o(.text)
    msdc_cmd                                 0x8002b41b   Thumb Code    68  msdc.o(.text)
    msdc_sg_init                             0x8002b48f   Thumb Code    54  msdc.o(.text)
    msdc_dma_init                            0x8002b4c5   Thumb Code    90  msdc.o(.text)
    msdc_dma_cmd                             0x8002b51f   Thumb Code    98  msdc.o(.text)
    msdc_dma_config                          0x8002b581   Thumb Code   760  msdc.o(.text)
    msdc_dma_start                           0x8002b879   Thumb Code    12  msdc.o(.text)
    msdc_dma_stop                            0x8002b885   Thumb Code    44  msdc.o(.text)
    msdc_dma_wait_done                       0x8002b8b1   Thumb Code   164  msdc.o(.text)
    msdc_dma_transfer                        0x8002b955   Thumb Code   502  msdc.o(.text)
    msdc_dma_bread                           0x8002bb4b   Thumb Code    54  msdc.o(.text)
    msdc_dma_bwrite                          0x8002bb81   Thumb Code    50  msdc.o(.text)
    msdc_dma_send_sandisk_fwid               0x8002bbb3   Thumb Code    38  msdc.o(.text)
    msdc_pio_read_word                       0x8002bbd9   Thumb Code   162  msdc.o(.text)
    msdc_pio_read                            0x8002bc7b   Thumb Code    22  msdc.o(.text)
    msdc_config_clksrc                       0x8002bc91   Thumb Code    28  msdc.o(.text)
    msdc_config_clock                        0x8002bcad   Thumb Code   414  msdc.o(.text)
    msdc_config_bus                          0x8002be4b   Thumb Code    50  msdc.o(.text)
    msdc_config_pin                          0x8002be7d   Thumb Code    24  msdc.o(.text)
    msdc_host_power                          0x8002be95   Thumb Code    10  msdc.o(.text)
    msdc_power                               0x8002be9f   Thumb Code    16  msdc.o(.text)
    msdc_reset_tune_counter                  0x8002beaf   Thumb Code     6  msdc.o(.text)
    msdc_tune_bread                          0x8002beb5   Thumb Code   796  msdc.o(.text)
    msdc_tune_read                           0x8002c1d1   Thumb Code   894  msdc.o(.text)
    msdc_tune_bwrite                         0x8002c54f   Thumb Code   406  msdc.o(.text)
    msdc_card_detect                         0x8002c6e5   Thumb Code    72  msdc.o(.text)
    msdc_card_avail                          0x8002c72d   Thumb Code    46  msdc.o(.text)
    msdc_card_protected                      0x8002c75b   Thumb Code    34  msdc.o(.text)
    msdc_hard_reset                          0x8002c77d   Thumb Code     2  msdc.o(.text)
    msdc_init                                0x8002c77f   Thumb Code   940  msdc.o(.text)
    msdc_uffs                                0x8002cd5d   Thumb Code    52  msdc_utils.o(.text)
    msdc_ntohl                               0x8002cd91   Thumb Code    28  msdc_utils.o(.text)
    msdc_set_field                           0x8002cdad   Thumb Code    32  msdc_utils.o(.text)
    msdc_get_field                           0x8002cdcd   Thumb Code    26  msdc_utils.o(.text)
    sec_v1_post_proc                         0x8002cde9   Thumb Code   416  sec_dl_v1.o(.text)
    sec_img_info_v1_post_proc                0x8002cf89   Thumb Code   126  sec_dl_v1.o(.text)
    sec_img_info_v1_check                    0x8002d007   Thumb Code   296  sec_dl_v1.o(.text)
    updated_by_v1_flashtool                  0x8002d25d   Thumb Code   226  sec_info_v1.o(.text)
    sec_img_info_v1_add                      0x8002d33f   Thumb Code   242  sec_info_v1.o(.text)
    sec_v3_post_proc                         0x8002d4ed   Thumb Code   578  sec_dl_v3.o(.text)
    sec_img_info_v3_post_proc                0x8002d72f   Thumb Code   250  sec_dl_v3.o(.text)
    sec_img_info_v3_check                    0x8002d829   Thumb Code   724  sec_dl_v3.o(.text)
    updated_by_v3_flashtool                  0x8002db89   Thumb Code   424  sec_info_v3.o(.text)
    sec_img_info_v3_add                      0x8002dd31   Thumb Code   296  sec_info_v3.o(.text)
    sej_set_clk                              0x8002df61   Thumb Code     4  sej_sk.o(.text)
    sej_set_iv                               0x8002df65   Thumb Code    16  sej_sk.o(.text)
    sej_set_mode                             0x8002df75   Thumb Code    52  sej_sk.o(.text)
    sej_set_key                              0x8002dfa9   Thumb Code   134  sej_sk.o(.text)
    sej_do_aes                               0x8002e02f   Thumb Code   154  sej_sk.o(.text)
    sej_init                                 0x8002e0c9   Thumb Code   140  sej_sk.o(.text)
    sej_deinit                               0x8002e155   Thumb Code    14  sej_sk.o(.text)
    sec_ext_reg_add                          0x8002e17d   Thumb Code    82  ext_region.o(.text)
    sec_ext_reg_reset_len                    0x8002e1cf   Thumb Code    24  ext_region.o(.text)
    sec_ext_reg_self_copy                    0x8002e1e7   Thumb Code    90  ext_region.o(.text)
    sec_ext_reg_update                       0x8002e241   Thumb Code   262  ext_region.o(.text)
    sec_ext_reg_compact                      0x8002e347   Thumb Code   262  ext_region.o(.text)
    sec_ext_reg_init                         0x8002e44d   Thumb Code    18  ext_region.o(.text)
    sec_ext_reg_check_len                    0x8002e45f   Thumb Code    22  ext_region.o(.text)
    sec_ext_reg_cur_len                      0x8002e475   Thumb Code     8  ext_region.o(.text)
    sec_write_seccfg                         0x8002e5f5   Thumb Code   698  seccfg_dev.o(.text)
    free                                     0x8002ea85   Thumb Code    78  h1_free.o(.text)
    Inline Thumb to ARM Veneer to __aeabi_uldivmod 0x8002ead5   Thumb Code     4  lludiv5.o(.text)
    __aeabi_uldivmod                         0x8002ead8   ARM Code       0  lludiv5.o(.text)
    _ll_udiv                                 0x8002ead8   ARM Code     816  lludiv5.o(.text)
    _ll_udiv_donemoving                      0x8002eaec   ARM Code       0  lludiv5.o(.text)
    __aeabi_llsl                             0x8002ee09   Thumb Code     0  llshl.o(.text)
    _ll_shift_l                              0x8002ee09   Thumb Code    38  llshl.o(.text)
    __aeabi_llsr                             0x8002ee2f   Thumb Code     0  llushr.o(.text)
    _ll_ushift_r                             0x8002ee2f   Thumb Code    38  llushr.o(.text)
    setlocale                                0x8002ee55   Thumb Code    10  locale.o(.text)
    memcmp                                   0x8002ee65   Thumb Code    78  memcmp.o(.text)
    strcpy                                   0x8002eeb3   Thumb Code    70  strcpy.o(.text)
    strlen                                   0x8002eef9   Thumb Code    58  strlen.o(.text)
    Inline Thumb to ARM Veneer to memcpy     0x8002ef35   Thumb Code     4  memcpy.o(.text)
    memcpy                                   0x8002ef38   ARM Code      12  memcpy.o(.text)
    __aeabi_memcpy                           0x8002ef44   ARM Code       0  rt_memcpy.o(.text)
    __rt_memcpy                              0x8002ef44   ARM Code     212  rt_memcpy.o(.text)
    _memcpy_lastbytes                        0x8002eff8   ARM Code       0  rt_memcpy.o(.text)
    memset                                   0x8002f019   Thumb Code    22  memset.o(.text)
    __aeabi_memclr4                          0x8002f030   ARM Code       0  rt_neon_memclr_w.o(.text)
    __aeabi_memclr8                          0x8002f030   ARM Code       0  rt_neon_memclr_w.o(.text)
    __rt_memclr_w                            0x8002f030   ARM Code      80  rt_neon_memclr_w.o(.text)
    _memset_w                                0x8002f034   ARM Code       0  rt_neon_memclr_w.o(.text)
    __aeabi_memcpy4                          0x8002f080   ARM Code       0  rt_noneon_memcpy_w_ca9.o(.text)
    __aeabi_memcpy8                          0x8002f080   ARM Code       0  rt_noneon_memcpy_w_ca9.o(.text)
    __rt_memcpy_w                            0x8002f080   ARM Code     124  rt_noneon_memcpy_w_ca9.o(.text)
    _memcpy_lastbytes_aligned                0x8002f0e4   ARM Code       0  rt_noneon_memcpy_w_ca9.o(.text)
    strcmp                                   0x8002f0fc   ARM Code     156  strcmp.o(.text)
    __aeabi_uread4                           0x8002f19d   Thumb Code     0  uread4.o(.text)
    __rt_uread4                              0x8002f19d   Thumb Code    22  uread4.o(.text)
    __aeabi_uwrite4                          0x8002f1b3   Thumb Code     0  uwrite4.o(.text)
    __rt_uwrite4                             0x8002f1b3   Thumb Code    22  uwrite4.o(.text)
    __rt_heap_descriptor                     0x8002f1c9   Thumb Code    12  rt_heap_descriptor.o(.text)
    _setlocale_r                             0x8002f273   Thumb Code   108  locale_r.o(.text)
    __aeabi_memclr                           0x8002f381   Thumb Code     0  rt_memclr.o(.text)
    __rt_memclr                              0x8002f381   Thumb Code    68  rt_memclr.o(.text)
    _memset                                  0x8002f385   Thumb Code     0  rt_memclr.o(.text)
    __rt_locale                              0x8002f3c5   Thumb Code    12  rt_locale.o(.text)
    Start                                    0x8002f3d0   ARM Code       0  BOOTARM.o(Init)
    sb_set_ac_enable                         0x8002f523   Thumb Code     6  sb_encode.o(MT6223_SB)
    sb_set_ac_offset                         0x8002f529   Thumb Code     6  sb_encode.o(MT6223_SB)
    sb_set_ac_length                         0x8002f52f   Thumb Code     6  sb_encode.o(MT6223_SB)
    sb_fsm_encode_sej_v3                     0x8002f535   Thumb Code    90  sb_encode.o(MT6223_SB)
    packet_handler_find_chipuid              0x8002f58f   Thumb Code   132  sb_encode.o(MT6223_SB)
    packet_handler_find_info                 0x8002f613   Thumb Code    88  sb_encode.o(MT6223_SB)
    packet_handler                           0x8002f66b   Thumb Code    58  sb_encode.o(MT6223_SB)
    GetPacketToRingBuffer                    0x8002f6a5   Thumb Code   136  sb_encode.o(MT6223_SB)
    GetPacketEx                              0x8002f72d   Thumb Code   298  sb_encode.o(MT6223_SB)
    GetPacket                                0x8002f857   Thumb Code     4  sb_encode.o(MT6223_SB)
    InitGlobalVar                            0x8002f9a1   Thumb Code    40  BLOADER.o(SYMBOLINIT)
    InitFlashTable                           0x8002f9c9   Thumb Code     8  BLOADER.o(SYMBOLINIT)
    InitBufferBase                           0x8002f9d1   Thumb Code    42  BLOADER.o(SYMBOLINIT)
    InitFreeExtRAM                           0x8002f9fb   Thumb Code    26  BLOADER.o(SYMBOLINIT)
    InitSOC                                  0x8002fa15   Thumb Code    10  BLOADER.o(SYMBOLINIT)
    Short Thumb to ARM Veneer to _memset_w   0x8002fa49   Thumb Code     8  anon$$obj.o(Veneer$$Code)
    __aeabi_idivmod                          0x8002fa51   Thumb Code    12  aeabi_sdiv_cr4.o(x$sdivmod)
    __aeabi_uidivmod                         0x8002fa5d   Thumb Code    12  aeabi_sdiv_cr4.o(x$udivmod)
    g_NAND_COMMON_CB_FUNC_SET                0x8002fa68   Data          68  nand_drv_COMMON_v3_1.o(.constdata)
    addr_tbl                                 0x8002faac   Data          40  nand_drv_COMMON_v3_1.o(.constdata)
    data_tbl                                 0x8002fad4   Data          40  nand_drv_COMMON_v3_1.o(.constdata)
    data_tbl_15nm                            0x8002fafc   Data          55  nand_drv_COMMON_v3_1.o(.constdata)
    g_NAND_HYNIX_512_CMD_SET                 0x8002fbf8   Data          56  nand_drv_HYNIX.o(.constdata)
    g_NAND_HYNIX_2048_CMD_SET                0x8002fc30   Data          56  nand_drv_HYNIX.o(.constdata)
    g_NAND_KINGSTON_2048_CMD_SET             0x8002fc68   Data          56  nand_drv_KINGSTON.o(.constdata)
    g_NAND_SAMSUNG_512_CMD_SET               0x8002fca0   Data          56  nand_drv_SAMSUNG.o(.constdata)
    g_NAND_SAMSUNG_2048_CMD_SET              0x8002fcd8   Data          56  nand_drv_SAMSUNG.o(.constdata)
    g_NAND_SAMSUNG_OTP_CB_FUNC_SET           0x8002fd10   Data          24  nand_drv_SAMSUNG.o(.constdata)
    SAMSUNG_OTP                              0x8002fd28   Data          52  nand_drv_SAMSUNG.o(.constdata)
    g_NAND_ST_512_CMD_SET                    0x8002fd5c   Data          56  nand_drv_ST.o(.constdata)
    g_NAND_ST_2048_CMD_SET                   0x8002fd94   Data          56  nand_drv_ST.o(.constdata)
    g_NAND_ST_CB_FUNC_SET                    0x8002fdcc   Data          68  nand_drv_ST.o(.constdata)
    g_NAND_TOSHIBA_512_CMD_SET               0x8002fe10   Data          56  nand_drv_TOSHIBA.o(.constdata)
    g_NAND_TOSHIBA_2048_CMD_SET              0x8002fe48   Data          56  nand_drv_TOSHIBA.o(.constdata)
    g_NAND_superAND_512_CMD_SET              0x8002fe80   Data          56  nand_drv_superAND.o(.constdata)
    g_NAND_superAND_2048_CMD_SET             0x8002feb8   Data          56  nand_drv_superAND.o(.constdata)
    g_NAND_superAND_CB_FUNC_SET              0x8002fef0   Data          68  nand_drv_superAND.o(.constdata)
    g_AC_BOOTROM_SWOTP                       0x80031348   Data          32  sej_hk.o(.constdata)
    g_NandFlashDevTbl_Internal               0x80031640   Data       12096  nand_dev_tbl.o(NAND_FLASH_TABLE)
    __lcnull_start                           0x8003458c   Data           4  null_locale.o(locale$$data)
    bl_region_ing                            0x80034590   Data           1  nand_drv_COMMON_v3_1.o(.data)
    reset_fdm_and_ecc                        0x80034591   Data           1  nand_drv_COMMON_v3_1.o(.data)
    fgRandomEn                               0x80034592   Data           1  nand_drv_COMMON_v3_1.o(.data)
    fgSSRandomizer                           0x80034593   Data           1  nand_drv_COMMON_v3_1.o(.data)
    fgPageReload                             0x80034594   Data           1  nand_drv_COMMON_v3_1.o(.data)
    real_hynix_rr_table_idx                  0x80034595   Data           1  nand_drv_COMMON_v3_1.o(.data)
    real_hynix_rr_table_idx_16nm             0x80034596   Data           1  nand_drv_COMMON_v3_1.o(.data)
    tlc_lg_left_plane                        0x80034597   Data           1  nand_drv_COMMON_v3_1.o(.data)
    tlc_cache_program                        0x80034598   Data           1  nand_drv_COMMON_v3_1.o(.data)
    tlc_snd_phyplane                         0x80034599   Data           1  nand_drv_COMMON_v3_1.o(.data)
    tlc_program_cycle                        0x8003459a   Data           1  nand_drv_COMMON_v3_1.o(.data)
    re_fdm_size                              0x8003459c   Data           4  nand_drv_COMMON_v3_1.o(.data)
    re_ecc_bit_cfg                           0x800345a0   Data           4  nand_drv_COMMON_v3_1.o(.data)
    re_ecc_level                             0x800345a4   Data           4  nand_drv_COMMON_v3_1.o(.data)
    org_ecc_bit_cfg                          0x800345a8   Data           4  nand_drv_COMMON_v3_1.o(.data)
    org_ecc_level                            0x800345ac   Data           4  nand_drv_COMMON_v3_1.o(.data)
    second_part_start_page                   0x800345b0   Data           4  nand_drv_COMMON_v3_1.o(.data)
    _u4TLCBlkSt                              0x800345b4   Data           4  nand_drv_COMMON_v3_1.o(.data)
    _u4TLCBlkEnd                             0x800345b8   Data           4  nand_drv_COMMON_v3_1.o(.data)
    magic                                    0x800345bc   Data           7  nand_drv_COMMON_v3_1.o(.data)
    _u4TLC2SLCRatio                          0x800346c4   Data           4  nand_drv_COMMON_v3_1.o(.data)
    g_MICRON_MLC_FEATURE                     0x800346c8   Data        1212  nand_dev_tbl.o(.data)
    g_MICRON_MLC_16NM_FEATURE                0x80034b84   Data        1212  nand_dev_tbl.o(.data)
    g_SANDISK_MLC_FEATURE                    0x80035040   Data        1212  nand_dev_tbl.o(.data)
    g_SANDISK_19NM_MLC_FEATURE               0x800354fc   Data        1212  nand_dev_tbl.o(.data)
    g_TOSHIBA_MLC_FEATURE                    0x800359b8   Data        1212  nand_dev_tbl.o(.data)
    g_TOSHIBA_15NM_MLC_FEATURE               0x80035e74   Data        1212  nand_dev_tbl.o(.data)
    g_HYNIX_MLC_FEATURE                      0x80036330   Data        1212  nand_dev_tbl.o(.data)
    g_HYNIX_16NM_MLC_FEATURE                 0x800367ec   Data        1212  nand_dev_tbl.o(.data)
    g_HYNIX_MLCTLC_FEATURE                   0x80036ca8   Data          40  nand_dev_tbl.o(.data)
    g_SANDISK_MLCTLC_FEATURE                 0x80036cd0   Data          40  nand_dev_tbl.o(.data)
    double_nfb                               0x80036cf8   Data           1  hw_config.o(.data)
    g_bTricky_CS                             0x80036cf9   Data           1  hw_config.o(.data)
    g_bTryrun_CS                             0x80036cfa   Data           1  hw_config.o(.data)
    g_maker_code                             0x80036cfc   Data           2  hw_config.o(.data)
    g_nanddie_pages                          0x80036d00   Data           4  hw_config.o(.data)
    g_FreeIntSysRAMBeginAddr                 0x80036d04   Data           4  hw_config.o(.data)
    g_IntSysRAMEndAddr                       0x80036d08   Data           4  hw_config.o(.data)
    g_FreeIntTCMBeginAddr                    0x80036d0c   Data           4  hw_config.o(.data)
    g_ITCMEndAddr                            0x80036d10   Data           4  hw_config.o(.data)
    g_DTCMEndAddr                            0x80036d14   Data           4  hw_config.o(.data)
    g_FreeExtRAMBeginAddr                    0x80036d18   Data           4  hw_config.o(.data)
    def_part_num                             0x80036d30   Data           4  main_nand.o(.data)
    g_UBIIMG_TotalPages                      0x80036d34   Data           4  main_nand.o(.data)
    g_u4SparseTLCS                           0x80036d38   Data           4  main_nand.o(.data)
    g_u4SparseTLCE                           0x80036d3c   Data           4  main_nand.o(.data)
    g_u4SparseSLCS                           0x80036d40   Data           4  main_nand.o(.data)
    g_u4SparseSLCE                           0x80036d44   Data           4  main_nand.o(.data)
    g_UBIUIMG_TotalPages                     0x80036d48   Data           4  main_nand.o(.data)
    g_u4USparseTLCS                          0x80036d4c   Data           4  main_nand.o(.data)
    g_u4USparseTLCE                          0x80036d50   Data           4  main_nand.o(.data)
    g_u4USparseSLCS                          0x80036d54   Data           4  main_nand.o(.data)
    g_u4USparseSLCE                          0x80036d58   Data           4  main_nand.o(.data)
    ftl_img                                  0x80036d5c   Data           4  main_nand.o(.data)
    g_NMAIN_ENFB_MappingTable                0x80036d60   Data           4  main_nand.o(.data)
    g_NMAIN_lastBlock                        0x80036d64   Data           4  main_nand.o(.data)
    g_ds_nand_total_bytes                    0x80036d68   Data           4  main_nand.o(.data)
    g_ds_nand_total_time                     0x80036d6c   Data           4  main_nand.o(.data)
    g_ds_nand_usb_bytes                      0x80036d70   Data           4  main_nand.o(.data)
    g_ds_nand_usb_time                       0x80036d74   Data           4  main_nand.o(.data)
    g_ds_nand_block_erase_number             0x80036d78   Data           4  main_nand.o(.data)
    g_ds_nand_block_erase_time               0x80036d7c   Data           4  main_nand.o(.data)
    g_ds_nand_page_program_number            0x80036d80   Data           4  main_nand.o(.data)
    g_ds_nand_page_program_time              0x80036d84   Data           4  main_nand.o(.data)
    g_ds_nand_page_read_number               0x80036d88   Data           4  main_nand.o(.data)
    g_ds_nand_page_read_time                 0x80036d8c   Data           4  main_nand.o(.data)
    g_ds_neon_memcpy_bytes                   0x80036d90   Data           4  main_nand.o(.data)
    g_ds_neon_memcpy_time                    0x80036d94   Data           4  main_nand.o(.data)
    g_ds_neon_memset_bytes                   0x80036d98   Data           4  main_nand.o(.data)
    g_ds_neon_memset_time                    0x80036d9c   Data           4  main_nand.o(.data)
    def_part                                 0x80036da0   Data        1824  main_nand.o(.data)
    bad_block_remark_done                    0x800374c0   Data           1  nand_util_func.o(.data)
    g_nand_bmt_num                           0x800374c4   Data           4  nand_util_func.o(.data)
    g_bIsSkipDLInfo                          0x800374c8   Data           1  BLOADER.o(.data)
    g_baudrate                               0x800374ca   Data           1  BLOADER.o(.data)
    g_bIsSecInfoChecked                      0x800374cb   Data           1  BLOADER.o(.data)
    g_bIsSecureMAUI                          0x800374cc   Data           1  BLOADER.o(.data)
    g_bIsDualBL                              0x800374cd   Data           1  BLOADER.o(.data)
    g_bbchip_secure_version                  0x800374ce   Data           1  BLOADER.o(.data)
    g_bbchip_bl_version                      0x800374cf   Data           1  BLOADER.o(.data)
    g_bIsSetupPLL                            0x800374d0   Data           1  BLOADER.o(.data)
    g_formatted                              0x800374d1   Data           1  BLOADER.o(.data)
    g_wdtsyncmode                            0x800374d2   Data           1  BLOADER.o(.data)
    g_nand_bmt_unit                          0x800374d3   Data           1  BLOADER.o(.data)
    g_wo_bat_configure                       0x800374d4   Data           1  BLOADER.o(.data)
    g_hw_reset_configure                     0x800374d5   Data           1  BLOADER.o(.data)
    total_checksum                           0x800374d6   Data           2  BLOADER.o(.data)
    g_MSDC_download_channel                  0x800374d8   Data           4  BLOADER.o(.data)
    g_Ret                                    0x800374dc   Data           4  BLOADER.o(.data)
    g_max_queue_data_in_rx_buffer            0x800374e0   Data           4  BLOADER.o(.data)
    PACKET_LENGTH                            0x800374e4   Data           4  BLOADER.o(.data)
    g_slc_percent_count                      0x800374e8   Data           4  BLOADER.o(.data)
    g_NandFlashDevTbl                        0x800374ec   Data           4  BLOADER.o(.data)
    g_NMAIN_p1stBlock                        0x800374f0   Data           4  BLOADER.o(.data)
    g_pNandInfo                              0x800374f4   Data           4  BLOADER.o(.data)
    g_retry_count                            0x800374f8   Data           2  BLOADER.o(.data)
    DDR_type                                 0x800374fc   Data           4  EMI.o(.data)
    ddr3_1333_enable                         0x80037500   Data           4  EMI.o(.data)
    g_ddr_reserve_enable                     0x80037504   Data           4  EMI.o(.data)
    g_ddr_reserve_success                    0x80037508   Data           4  EMI.o(.data)
    emi_setting_emcp                         0x8003750c   Data         188  EMI.o(.data)
    emi_setting_default_lpddr2               0x800375c8   Data         188  EMI.o(.data)
    emi_setting_default_lpddr3               0x80037684   Data         188  EMI.o(.data)
    emi_setting_default_pcddr3               0x80037740   Data         188  EMI.o(.data)
    g_PmicType                               0x800377fc   Data           1  platform.o(.data)
    g_IsBatteryExist                         0x800377fd   Data           1  platform.o(.data)
    MT6323_pmic_def                          0x800377fe   Data          30  platform.o(.data)
    g_RX_RING_BUFFER_LENGTH                  0x8003781c   Data           4  rx_buffer.o(.data)
    g_rx_buffer_baseaddr                     0x80037820   Data           4  rx_buffer.o(.data)
    g_user_virt_addr                         0x80037838   Data           8  sdmmc.o(.data)
    g_sdmmc_size                             0x80037840   Data           8  sdmmc.o(.data)
    g_sdmmc_user_size                        0x80037848   Data           8  sdmmc.o(.data)
    g_ds_sdmmc_total_bytes                   0x80037858   Data           4  sdmmc_handler.o(.data)
    g_ds_sdmmc_total_time                    0x8003785c   Data           4  sdmmc_handler.o(.data)
    g_ds_sdmmc_usb_bytes                     0x80037860   Data           4  sdmmc_handler.o(.data)
    g_ds_sdmmc_usb_time                      0x80037864   Data           4  sdmmc_handler.o(.data)
    g_ds_sdmmc_crc_bytes                     0x80037868   Data           4  sdmmc_handler.o(.data)
    g_ds_sdmmc_crc_time                      0x8003786c   Data           4  sdmmc_handler.o(.data)
    g_ds_sdmmc_block_erase_number            0x80037870   Data           4  sdmmc_handler.o(.data)
    g_ds_sdmmc_block_erase_time              0x80037874   Data           4  sdmmc_handler.o(.data)
    g_ds_sdmmc_block_write_number            0x80037878   Data           4  sdmmc_handler.o(.data)
    g_ds_sdmmc_block_write_time              0x8003787c   Data           4  sdmmc_handler.o(.data)
    g_ds_sdmmc_block_read_number             0x80037880   Data           4  sdmmc_handler.o(.data)
    g_ds_sdmmc_block_read_time               0x80037884   Data           4  sdmmc_handler.o(.data)
    g_nand_bmt_combo                         0x80037890   Data           1  bmt.o(.data)
    nand_oob                                 0x80037894   Data           4  bmt.o(.data)
    raw_part_block_count                     0x800378bc   Data           4  bmt.o(.data)
    nand_oob_64                              0x800378c4   Data         324  bmt.o(.data)
    nand_oob_128                             0x80037a08   Data         324  bmt.o(.data)
    gUsbSetupInfo                            0x80037b4c   Data           4  dl_usb.o(.data)
    g_enable_hs                              0x80037b50   Data           1  dl_usb_drv.o(.data)
    uart_baud_tbl                            0x80037b74   Data          56  UART.o(.data)
    g_bSecureUSBDL                           0x80037bcc   Data           1  security.o(.data)
    DQSO_Mapping                             0x80037bd0   Data           4  dramc_calib.o(.data)
    DQM_Mapping                              0x80037bd4   Data           4  dramc_calib.o(.data)
    RANK_CURR                                0x80037bd8   Data           4  dramc_calib.o(.data)
    opt_rx_dqs0                              0x80037bdc   Data           4  dramc_calib.o(.data)
    opt_rx_dqs1                              0x80037be0   Data           4  dramc_calib.o(.data)
    opt_tx_dqs                               0x80037be4   Data           4  dramc_calib.o(.data)
    opt_tx_dqm                               0x80037be8   Data           4  dramc_calib.o(.data)
    DQS_PRINT                                0x80037bec   Data           4  dramc_calib.o(.data)
    Bit_DQO_Mapping_4BitMux_On               0x80037bf0   Data          32  dramc_calib.o(.data)
    Bit_DQO_Mapping_4BitMux_Off              0x80037c10   Data          32  dramc_calib.o(.data)
    second_nfb_header_blk                    0x80037eec   Data           4  nand_download_internal.o(.data)
    second_pl_blk                            0x80037ef0   Data           4  nand_download_internal.o(.data)
    first_nfb_header_blk                     0x80037ef4   Data           4  nand_download_internal.o(.data)
    first_pl_blk                             0x80037ef8   Data           4  nand_download_internal.o(.data)
    USB2UARTPort                             0x80037f0c   Data           3  dl_usbacm_drv.o(.data)
    gUSBAcm_IsInEPComplete                   0x80037f0f   Data           1  dl_usbacm_drv.o(.data)
    bSecCfgUpdate                            0x80037f50   Data           1  sec_dl.o(.data)
    g_CurDevType                             0x80037f52   Data           1  sec_dev.o(.data)
    opt_dle_value                            0x80037f54   Data           4  dramc_dle_cal.o(.data)
    dram_driving_tbl                         0x80037f5c   Data           8  dramc_dle_cal.o(.data)
    dle_tbl                                  0x80037f64   Data          36  dramc_dle_cal.o(.data)
    dle_tuning_factors                       0x80037f88   Data          20  dramc_dle_cal.o(.data)
    dle_test_cases                           0x80037f9c   Data          16  dramc_dle_cal.o(.data)
    g_max_gw_score                           0x80037fac   Data           4  dramc_dqs_gw.o(.data)
    opt_gw_coarse_value                      0x80037fb0   Data           4  dramc_dqs_gw.o(.data)
    opt_gw_fine_value                        0x80037fb4   Data           4  dramc_dqs_gw.o(.data)
    opt_gw_coarse_value0                     0x80037fb8   Data           4  dramc_dqs_gw.o(.data)
    score                                    0x80037fbc   Data           4  dramc_dqs_gw.o(.data)
    high_score                               0x80037fc0   Data           4  dramc_dqs_gw.o(.data)
    dqsi_gw_dly_coarse_tbl                   0x80037fcc   Data          72  dramc_dqs_gw.o(.data)
    dqsi_gw_dly_fine_tbl                     0x80038014   Data          68  dramc_dqs_gw.o(.data)
    dqs_gw_tuning_factors                    0x80038058   Data          40  dramc_dqs_gw.o(.data)
    dqs_gw_test_cases_1                      0x80038080   Data          16  dramc_dqs_gw.o(.data)
    opt_gw_fine_value0                       0x80038090   Data           4  dramc_dqs_gw.o(.data)
    opt_gw_coarse_value1                     0x80038094   Data           4  dramc_dqs_gw.o(.data)
    opt_gw_fine_value1                       0x80038098   Data           4  dramc_dqs_gw.o(.data)
    msdc_cap                                 0x800380c0   Data          20  msdc_cust.o(.data)
    Image$$EXT_RAM_ZI$$ZI$$Base              0x800380d8   Number         0  nand_drv_COMMON_v3_1.o(.bss)
    dbg_MLC                                  0x800380d8   Data          26  nand_drv_COMMON_v3_1.o(.bss)
    hynix_rr_table                           0x800380f2   Data        1032  nand_drv_COMMON_v3_1.o(.bss)
    hynix_rr_table_16nm                      0x800384fa   Data         528  nand_drv_COMMON_v3_1.o(.bss)
    ecc_parity_from_reg                      0x8003870c   Data          32  nand_drv_COMMON_v3_1.o(.bss)
    g_HW_DevCfg                              0x80038730   Data         400  hw_config.o(.bss)
    g_HW_DetectionResult                     0x800388c0   Data         248  hw_config.o(.bss)
    g_NMAIN_TmpPage                          0x80038a08   Data       18432  main_nand.o(.bss)
    g_NMAIN_DL                               0x8003d208   Data         564  main_nand.o(.bss)
    g_NMAIN_ImageList                        0x8003d43c   Data         324  main_nand.o(.bss)
    g_NMAIN_FOTA_ImageList                   0x8003d580   Data        2992  main_nand.o(.bss)
    g_Main_ImageSpaceInfo                    0x8003e130   Data         272  main_nand.o(.bss)
    g_NMAIN_ResourceList                     0x8003e240   Data         132  main_nand.o(.bss)
    g_nand_mac_array                         0x8003e2c4   Data        1028  main_nand.o(.bss)
    test_len2                                0x8003e6c8   Data          64  main_nand.o(.bss)
    g_NUTL_PageRead_Var                      0x8003eb08   Data       18496  nand_util_func.o(.bss)
    g_NUTL_PageProgram_Var                   0x80043348   Data       18496  nand_util_func.o(.bss)
    g_NandFlashInfo                          0x80047b88   Data          32  nand_util_func.o(.bss)
    g_Argument                               0x80047ba8   Data         232  BLOADER.o(.bss)
    g_SLC_percent                            0x80047c90   Data          80  BLOADER.o(.bss)
    g_Rx_Buffer                              0x80047ce0   Data          16  BLOADER.o(.bss)
    g_COM_Driver                             0x80047cf0   Data          60  BLOADER.o(.bss)
    g_NandFlashDev                           0x80047d30   Data          96  BLOADER.o(.bss)
    g_Image_Checksum                         0x80048208   Data         160  sdmmc_handler.o(.bss)
    g_download_info                          0x800482a8   Data        1504  sdmmc_handler.o(.bss)
    g_nand_chip                              0x80051888   Data          72  bmt.o(.bss)
    g_NMAIN_CmpPage                          0x8006d0e8   Data       18432  test_main.o(.bss)
    gUsbDevice                               0x800718e8   Data        1120  dl_usb.o(.bss)
    g_UsbDrvInfo                             0x80071d48   Data         152  dl_usb_drv.o(.bss)
    usbacm_tx_buf                            0x80071de0   Data         520  dl_usbacm_adap.o(.bss)
    usbacm_rx_buf                            0x80071fe8   Data         520  dl_usbacm_adap.o(.bss)
    sec_buf                                  0x800722d0   Data       32768  security.o(.bss)
    g_LoadInfo                               0x8007a2d0   Data       11204  security.o(.bss)
    g_USBDL4EndUser                          0x8007ce94   Data        4112  security.o(.bss)
    opt_tx_dq                                0x8007dea4   Data          16  dramc_calib.o(.bss)
    g_UsbACM                                 0x80083734   Data          48  dl_usbacm_drv.o(.bss)
    sec_page                                 0x80083764   Data       32768  sec_dev.o(.bss)
    dle_result                               0x8008b7d0   Data          64  dramc_dle_cal.o(.bss)
    dll_part                                 0x8008c160   Data        3840  main_nand.o(CUSTOMER_ZIDATA)
    save_part                                0x8008d060   Data        3840  main_nand.o(CUSTOMER_ZIDATA)
    Image$$INT_SYSRAM$$Base                  0x8008df60   Number         0  anon$$obj.o(linker$$defined$$symbols)
    Image$$INT_SYSRAM$$Limit                 0x8008df60   Number         0  anon$$obj.o(linker$$defined$$symbols)
    g_wyq_parameter_start                    0x80100000   Data           4  da_init.o(.ARM.__AT_0x80100000)



==============================================================================

Memory Map of the image

  Image entry point : Not specified.

  Load Region EXT_RAM (Base: 0x80000000, Size: 0x000380d8, Max: 0x00100000, ABSOLUTE)

    Execution Region EXT_RAM (Base: 0x80000000, Size: 0x000380d8, Max: 0xffffffff, ABSOLUTE)

    Base Addr    Size         Type   Attr      Idx    E Section Name        Object

    0x80000000   0x0000001c   Code   RO            6  * Init                BOOTARM_DRAM.o
    0x8000001c   0x000031b0   Code   RO           12    .text               nand_drv_COMMON_v3_1.o
    0x800031cc   0x0000001a   Code   RO          139    .text               nand_drv_SAMSUNG.o
    0x800031e6   0x00000002   PAD
    0x800031e8   0x0000001c   Code   RO          160    .text               nand_drv_ST.o
    0x80003204   0x00000028   Code   RO          201    .text               nand_drv_superAND.o
    0x8000322c   0x00000268   Code   RO          276    .text               MTK_MT8127_DA_platform_LOOP.a(da_init.o)(MTK_MT8127_DA_platform_LOOP.a)
    0x80003494   0x000009d0   Code   RO          417    .text               MTK_MT8127_DA_platform_LOOP.a(hw_config.o)(MTK_MT8127_DA_platform_LOOP.a)
    0x80003e64   0x00000020   Code   RO          492    .text               MTK_MT8127_DA_platform_LOOP.a(main.o)(MTK_MT8127_DA_platform_LOOP.a)
    0x80003e84   0x0000029c   Code   RO          507    .text               MTK_MT8127_DA_platform_LOOP.a(logging.o)(MTK_MT8127_DA_platform_LOOP.a)
    0x80004120   0x000001d4   Code   RO          538    .text               MTK_MT8127_DA_platform_LOOP.a(xgpt.o)(MTK_MT8127_DA_platform_LOOP.a)
    0x800042f4   0x000050f0   Code   RO          568    .text               MTK_MT8127_DA_platform_LOOP.a(main_nand.o)(MTK_MT8127_DA_platform_LOOP.a)
    0x800093e4   0x000023b4   Code   RO          690    .text               MTK_MT8127_DA_platform_LOOP.a(nand_util_func.o)(MTK_MT8127_DA_platform_LOOP.a)
    0x8000b798   0x00000098   Code   RO          699    .text               MTK_MT8127_DA_platform_LOOP.a(nand_util_func.o)(MTK_MT8127_DA_platform_LOOP.a)
    0x8000b830   0x0000006c   Code   RO          700    .text               MTK_MT8127_DA_platform_LOOP.a(nand_util_func.o)(MTK_MT8127_DA_platform_LOOP.a)
    0x8000b89c   0x000000e0   Code   RO          701    .text               MTK_MT8127_DA_platform_LOOP.a(nand_util_func.o)(MTK_MT8127_DA_platform_LOOP.a)
    0x8000b97c   0x000018c4   Code   RO          793    .text               MTK_MT8127_DA_platform_LOOP.a(BLOADER.o)(MTK_MT8127_DA_platform_LOOP.a)
    0x8000d240   0x00002bc0   Code   RO          907    .text               MTK_MT8127_DA_platform_LOOP.a(EMI.o)(MTK_MT8127_DA_platform_LOOP.a)
    0x8000fe00   0x00000064   Code   RO          991    .text               MTK_MT8127_DA_platform_LOOP.a(cache.o)(MTK_MT8127_DA_platform_LOOP.a)
    0x8000fe64   0x00000750   Code   RO         1022    .text               MTK_MT8127_DA_platform_LOOP.a(download_bloader.o)(MTK_MT8127_DA_platform_LOOP.a)
    0x800105b4   0x00000228   Code   RO         1101    .text               MTK_MT8127_DA_platform_LOOP.a(flash_otp.o)(MTK_MT8127_DA_platform_LOOP.a)
    0x800107dc   0x000000b8   Code   RO         1125    .text               MTK_MT8127_DA_platform_LOOP.a(kal_release.o)(MTK_MT8127_DA_platform_LOOP.a)
    0x80010894   0x000006bc   Code   RO         1149    .text               MTK_MT8127_DA_platform_LOOP.a(platform.o)(MTK_MT8127_DA_platform_LOOP.a)
    0x80010f50   0x00000038   Code   RO         1203    .text               MTK_MT8127_DA_platform_LOOP.a(rid.o)(MTK_MT8127_DA_platform_LOOP.a)
    0x80010f88   0x00000140   Code   RO         1234    .text               MTK_MT8127_DA_platform_LOOP.a(assert.o)(MTK_MT8127_DA_platform_LOOP.a)
    0x800110c8   0x000007e4   Code   RO         1253    .text               MTK_MT8127_DA_platform_LOOP.a(sal_pll.o)(MTK_MT8127_DA_platform_LOOP.a)
    0x800118ac   0x00000582   Code   RO         1303    .text               MTK_MT8127_DA_platform_LOOP.a(blkdev.o)(MTK_MT8127_DA_platform_LOOP.a)
    0x80011e2e   0x00000002   PAD
    0x80011e30   0x00001514   Code   RO         1342    .text               MTK_MT8127_DA_platform_LOOP.a(sdmmc.o)(MTK_MT8127_DA_platform_LOOP.a)
    0x80013344   0x000000b8   Code   RO         1345    .text               MTK_MT8127_DA_platform_LOOP.a(sdmmc.o)(MTK_MT8127_DA_platform_LOOP.a)
    0x800133fc   0x000000e4   Code   RO         1346    .text               MTK_MT8127_DA_platform_LOOP.a(sdmmc.o)(MTK_MT8127_DA_platform_LOOP.a)
    0x800134e0   0x000019cc   Code   RO         1433    .text               MTK_MT8127_DA_platform_LOOP.a(sdmmc_handler.o)(MTK_MT8127_DA_platform_LOOP.a)
    0x80014eac   0x000033b8   Code   RO         1476    .text               MTK_MT8127_DA_platform_LOOP.a(bmt.o)(MTK_MT8127_DA_platform_LOOP.a)
    0x80018264   0x00000fb4   Code   RO         1529    .text               MTK_MT8127_DA_platform_LOOP.a(main_nand_internal.o)(MTK_MT8127_DA_platform_LOOP.a)
    0x80019218   0x000007bc   Code   RO         1630    .text               MTK_MT8127_DA_platform_LOOP.a(test_main.o)(MTK_MT8127_DA_platform_LOOP.a)
    0x800199d4   0x00000684   Code   RO         1648    .text               MTK_MT8127_DA_platform_LOOP.a(dl_usb.o)(MTK_MT8127_DA_platform_LOOP.a)
    0x8001a058   0x00000584   Code   RO         1700    .text               MTK_MT8127_DA_platform_LOOP.a(dl_usb_drv.o)(MTK_MT8127_DA_platform_LOOP.a)
    0x8001a5dc   0x0000054c   Code   RO         1827    .text               MTK_MT8127_DA_platform_LOOP.a(dl_usbacm_adap.o)(MTK_MT8127_DA_platform_LOOP.a)
    0x8001ab28   0x0000041c   Code   RO         1879    .text               MTK_MT8127_DA_platform_LOOP.a(UART.o)(MTK_MT8127_DA_platform_LOOP.a)
    0x8001af44   0x000000d0   Code   RO         1907    .text               fw_ver_MT8127.a(get_fw_ver.o)(fw_ver_MT8127.a)
    0x8001b014   0x00000478   Code   RO         1910    .text               fw_ver_MT8127.a(sb_encode.o)(fw_ver_MT8127.a)
    0x8001b48c   0x00001f50   Code   RO         1915    .text               fw_ver_MT8127.a(security.o)(fw_ver_MT8127.a)
    0x8001d3dc   0x000010f8   Code   RO         1921    .text               fw_ver_MT8127.a(sec_secro.o)(fw_ver_MT8127.a)
    0x8001e4d4   0x000001a8   Code   RO         1925    .text               fw_ver_MT8127.a(sec_flashtool_cfg.o)(fw_ver_MT8127.a)
    0x8001e67c   0x00001134   Code   RO         1928    .text               MTK_MT8127_DA_platform_LOOP.a(dramc_calib.o)(MTK_MT8127_DA_platform_LOOP.a)
    0x8001f7b0   0x00000e84   Code   RO         1948    .text               MTK_MT8127_DA_platform_LOOP.a(efi.o)(MTK_MT8127_DA_platform_LOOP.a)
    0x80020634   0x00000002   Code   RO         1995    .text               MTK_MT8127_DA_platform_LOOP.a(dummy.o)(MTK_MT8127_DA_platform_LOOP.a)
    0x80020636   0x00000002   PAD
    0x80020638   0x00000ddc   Code   RO         2007    .text               MTK_MT8127_DA_platform_LOOP.a(pmic_wrap_init.o)(MTK_MT8127_DA_platform_LOOP.a)
    0x80021414   0x000003a0   Code   RO         2036    .text               MTK_MT8127_DA_platform_LOOP.a(rtc.o)(MTK_MT8127_DA_platform_LOOP.a)
    0x800217b4   0x00003184   Code   RO         2172    .text               MTK_MT8127_DA_platform_LOOP.a(mmc_core.o)(MTK_MT8127_DA_platform_LOOP.a)
    0x80024938   0x00000424   Code   RO         2317    .text               MTK_MT8127_DA_platform_LOOP.a(sdmmc_download_internal.o)(MTK_MT8127_DA_platform_LOOP.a)
    0x80024d5c   0x0000124c   Code   RO         2371    .text               MTK_MT8127_DA_platform_LOOP.a(nand_download_internal.o)(MTK_MT8127_DA_platform_LOOP.a)
    0x80025fa8   0x000001d4   Code   RO         2415    .text               MTK_MT8127_DA_platform_LOOP.a(test_bus.o)(MTK_MT8127_DA_platform_LOOP.a)
    0x8002617c   0x000006cc   Code   RO         2435    .text               MTK_MT8127_DA_platform_LOOP.a(test_ext_sram.o)(MTK_MT8127_DA_platform_LOOP.a)
    0x80026848   0x00000002   Code   RO         2461    .text               MTK_MT8127_DA_platform_LOOP.a(dl_usb_debug_tool.o)(MTK_MT8127_DA_platform_LOOP.a)
    0x8002684a   0x00000002   PAD
    0x8002684c   0x000000a0   Code   RO         2473    .text               MTK_MT8127_DA_platform_LOOP.a(dl_usb_mode.o)(MTK_MT8127_DA_platform_LOOP.a)
    0x800268ec   0x000005b0   Code   RO         2494    .text               MTK_MT8127_DA_platform_LOOP.a(dl_usb_resource.o)(MTK_MT8127_DA_platform_LOOP.a)
    0x80026e9c   0x0000041c   Code   RO         2522    .text               MTK_MT8127_DA_platform_LOOP.a(dl_usbacm_drv.o)(MTK_MT8127_DA_platform_LOOP.a)
    0x800272b8   0x00000160   Code   RO         2543    .text               MTK_MT8127_DA_platform_LOOP.a(usbphy.o)(MTK_MT8127_DA_platform_LOOP.a)
    0x80027418   0x0000082c   Code   RO         2555    .text               fw_ver_MT8127.a(md5.o)(fw_ver_MT8127.a)
    0x80027c44   0x000004a6   Code   RO         2558    .text               fw_ver_MT8127.a(msha1.o)(fw_ver_MT8127.a)
    0x800280ea   0x00000002   PAD
    0x800280ec   0x0000014c   Code   RO         2562    .text               fw_ver_MT8127.a(sec_dl.o)(fw_ver_MT8127.a)
    0x80028238   0x00000094   Code   RO         2565    .text               fw_ver_MT8127.a(sec_info.o)(fw_ver_MT8127.a)
    0x800282cc   0x000001dc   Code   RO         2567    .text               fw_ver_MT8127.a(seccfg.o)(fw_ver_MT8127.a)
    0x800284a8   0x00000068   Code   RO         2569    .text               fw_ver_MT8127.a(seccfg_ver.o)(fw_ver_MT8127.a)
    0x80028510   0x0000013c   Code   RO         2572    .text               fw_ver_MT8127.a(seccfg_crypto.o)(fw_ver_MT8127.a)
    0x8002864c   0x000007b8   Code   RO         2574    .text               fw_ver_MT8127.a(sec_dev.o)(fw_ver_MT8127.a)
    0x80028e04   0x00000020   Code   RO         2578    .text               fw_ver_MT8127.a(sec_key.o)(fw_ver_MT8127.a)
    0x80028e24   0x00000088   Code   RO         2580    .text               fw_ver_MT8127.a(sec_util.o)(fw_ver_MT8127.a)
    0x80028eac   0x0000026c   Code   RO         2582    .text               fw_ver_MT8127.a(sec_hdr.o)(fw_ver_MT8127.a)
    0x80029118   0x00000130   Code   RO         2585    .text               fw_ver_MT8127.a(sej_hk.o)(fw_ver_MT8127.a)
    0x80029248   0x00000160   Code   RO         2589    .text               fw_ver_MT8127.a(sej_export.o)(fw_ver_MT8127.a)
    0x800293a8   0x000003c0   Code   RO         2591    .text               fw_ver_MT8127_s.a(sha1_sw.o)(fw_ver_MT8127_s.a)
    0x80029768   0x00000358   Code   RO         2596    .text               MTK_MT8127_DA_platform_LOOP.a(dramc_dle_cal.o)(MTK_MT8127_DA_platform_LOOP.a)
    0x80029ac0   0x00000c88   Code   RO         2647    .text               MTK_MT8127_DA_platform_LOOP.a(dramc_dqs_gw.o)(MTK_MT8127_DA_platform_LOOP.a)
    0x8002a748   0x00002614   Code   RO         2682    .text               MTK_MT8127_DA_platform_LOOP.a(msdc.o)(MTK_MT8127_DA_platform_LOOP.a)
    0x8002cd5c   0x0000008a   Code   RO         2816    .text               MTK_MT8127_DA_platform_LOOP.a(msdc_utils.o)(MTK_MT8127_DA_platform_LOOP.a)
    0x8002cde6   0x00000002   PAD
    0x8002cde8   0x00000474   Code   RO         2840    .text               fw_ver_MT8127.a(sec_dl_v1.o)(fw_ver_MT8127.a)
    0x8002d25c   0x00000290   Code   RO         2842    .text               fw_ver_MT8127.a(sec_info_v1.o)(fw_ver_MT8127.a)
    0x8002d4ec   0x0000069c   Code   RO         2844    .text               fw_ver_MT8127.a(sec_dl_v3.o)(fw_ver_MT8127.a)
    0x8002db88   0x000003d8   Code   RO         2846    .text               fw_ver_MT8127.a(sec_info_v3.o)(fw_ver_MT8127.a)
    0x8002df60   0x0000021c   Code   RO         2848    .text               fw_ver_MT8127.a(sej_sk.o)(fw_ver_MT8127.a)
    0x8002e17c   0x00000478   Code   RO         2864    .text               fw_ver_MT8127.a(ext_region.o)(fw_ver_MT8127.a)
    0x8002e5f4   0x00000490   Code   RO         2867    .text               fw_ver_MT8127.a(seccfg_dev.o)(fw_ver_MT8127.a)
    0x8002ea84   0x0000004e   Code   RO         2873    .text               c_2.l(h1_free.o)(c_2.l)
    0x8002ead2   0x00000002   PAD
    0x8002ead4   0x00000004   Ven    RO         2927    .text               c_2.l(lludiv5.o)(c_2.l)
    0x8002ead8   0x00000330   Code   RO         2927    .text               c_2.l(lludiv5.o)(c_2.l)
    0x8002ee08   0x00000026   Code   RO         2929    .text               c_2.l(llshl.o)(c_2.l)
    0x8002ee2e   0x00000026   Code   RO         2931    .text               c_2.l(llushr.o)(c_2.l)
    0x8002ee54   0x00000010   Code   RO         2933    .text               c_2.l(locale.o)(c_2.l)
    0x8002ee64   0x0000004e   Code   RO         2936    .text               c_2.l(memcmp.o)(c_2.l)
    0x8002eeb2   0x00000046   Code   RO         2938    .text               c_2.l(strcpy.o)(c_2.l)
    0x8002eef8   0x0000003a   Code   RO         2940    .text               c_2.l(strlen.o)(c_2.l)
    0x8002ef32   0x00000002   PAD
    0x8002ef34   0x00000004   Ven    RO         2942    .text               c_2.l(memcpy.o)(c_2.l)
    0x8002ef38   0x0000000c   Code   RO         2942    .text               c_2.l(memcpy.o)(c_2.l)
    0x8002ef44   0x000000d4   Code   RO         2944    .text               c_2.l(rt_memcpy.o)(c_2.l)
    0x8002f018   0x00000016   Code   RO         2946    .text               c_2.l(memset.o)(c_2.l)
    0x8002f02e   0x00000002   PAD
    0x8002f030   0x00000050   Code   RO         2948    .text               c_2.l(rt_neon_memclr_w.o)(c_2.l)
    0x8002f080   0x0000007c   Code   RO         2950    .text               c_2.l(rt_noneon_memcpy_w_ca9.o)(c_2.l)
    0x8002f0fc   0x000000a0   Code   RO         2952    .text               c_2.l(strcmp.o)(c_2.l)
    0x8002f19c   0x00000016   Code   RO         2954    .text               c_2.l(uread4.o)(c_2.l)
    0x8002f1b2   0x00000016   Code   RO         2956    .text               c_2.l(uwrite4.o)(c_2.l)
    0x8002f1c8   0x0000000c   Code   RO         3012    .text               c_2.l(rt_heap_descriptor.o)(c_2.l)
    0x8002f1d4   0x000001ac   Code   RO         3039    .text               c_2.l(locale_r.o)(c_2.l)
    0x8002f380   0x00000044   Code   RO         3041    .text               c_2.l(rt_memclr.o)(c_2.l)
    0x8002f3c4   0x0000000c   Code   RO         3048    .text               c_2.l(rt_locale.o)(c_2.l)
    0x8002f3d0   0x000000d4   Code   RO            1  * Init                BOOTARM.o
    0x8002f4a4   0x000004fc   Code   RO         1911    MT6223_SB           fw_ver_MT8127.a(sb_encode.o)(fw_ver_MT8127.a)
    0x8002f9a0   0x000000a8   Code   RO          806    SYMBOLINIT          MTK_MT8127_DA_platform_LOOP.a(BLOADER.o)(MTK_MT8127_DA_platform_LOOP.a)
    0x8002fa48   0x00000008   Ven    RO         3191    Veneer$$Code        anon$$obj.o
    0x8002fa50   0x0000000c   Code   RO         2960    x$sdivmod           c_2.l(aeabi_sdiv_cr4.o)(c_2.l)
    0x8002fa5c   0x0000000c   Code   RO         2962    x$udivmod           c_2.l(aeabi_sdiv_cr4.o)(c_2.l)
    0x8002fa68   0x00000044   Data   RO           20    .constdata          nand_drv_COMMON_v3_1.o
    0x8002faac   0x0000014b   Data   RO           21    .constdata          nand_drv_COMMON_v3_1.o
    0x8002fbf7   0x00000001   PAD
    0x8002fbf8   0x00000038   Data   RO          113    .constdata          nand_drv_HYNIX.o
    0x8002fc30   0x00000038   Data   RO          114    .constdata          nand_drv_HYNIX.o
    0x8002fc68   0x00000038   Data   RO          127    .constdata          nand_drv_KINGSTON.o
    0x8002fca0   0x00000038   Data   RO          140    .constdata          nand_drv_SAMSUNG.o
    0x8002fcd8   0x00000038   Data   RO          141    .constdata          nand_drv_SAMSUNG.o
    0x8002fd10   0x00000018   Data   RO          142    .constdata          nand_drv_SAMSUNG.o
    0x8002fd28   0x00000034   Data   RO          143    .constdata          nand_drv_SAMSUNG.o
    0x8002fd5c   0x00000038   Data   RO          161    .constdata          nand_drv_ST.o
    0x8002fd94   0x00000038   Data   RO          162    .constdata          nand_drv_ST.o
    0x8002fdcc   0x00000044   Data   RO          163    .constdata          nand_drv_ST.o
    0x8002fe10   0x00000038   Data   RO          188    .constdata          nand_drv_TOSHIBA.o
    0x8002fe48   0x00000038   Data   RO          189    .constdata          nand_drv_TOSHIBA.o
    0x8002fe80   0x00000038   Data   RO          202    .constdata          nand_drv_superAND.o
    0x8002feb8   0x00000038   Data   RO          203    .constdata          nand_drv_superAND.o
    0x8002fef0   0x00000044   Data   RO          204    .constdata          nand_drv_superAND.o
    0x8002ff34   0x000000e0   Data   RO          422    .constdata          MTK_MT8127_DA_platform_LOOP.a(hw_config.o)(MTK_MT8127_DA_platform_LOOP.a)
    0x80030014   0x00000002   Data   RO          423    .constdata          MTK_MT8127_DA_platform_LOOP.a(hw_config.o)(MTK_MT8127_DA_platform_LOOP.a)
    0x80030016   0x00000001   Data   RO          424    .constdata          MTK_MT8127_DA_platform_LOOP.a(hw_config.o)(MTK_MT8127_DA_platform_LOOP.a)
    0x80030017   0x00000001   PAD
    0x80030018   0x00000010   Data   RO          425    .constdata          MTK_MT8127_DA_platform_LOOP.a(hw_config.o)(MTK_MT8127_DA_platform_LOOP.a)
    0x80030028   0x000000b8   Data   RO          426    .constdata          MTK_MT8127_DA_platform_LOOP.a(hw_config.o)(MTK_MT8127_DA_platform_LOOP.a)
    0x800300e0   0x00000007   Data   RO          509    .constdata          MTK_MT8127_DA_platform_LOOP.a(logging.o)(MTK_MT8127_DA_platform_LOOP.a)
    0x800300e7   0x00000001   PAD
    0x800300e8   0x00000331   Data   RO          579    .constdata          MTK_MT8127_DA_platform_LOOP.a(main_nand.o)(MTK_MT8127_DA_platform_LOOP.a)
    0x80030419   0x00000017   Data   RO          704    .constdata          MTK_MT8127_DA_platform_LOOP.a(nand_util_func.o)(MTK_MT8127_DA_platform_LOOP.a)
    0x80030430   0x00000098   Data   RO          810    .constdata          MTK_MT8127_DA_platform_LOOP.a(BLOADER.o)(MTK_MT8127_DA_platform_LOOP.a)
    0x800304c8   0x000001da   Data   RO          917    .constdata          MTK_MT8127_DA_platform_LOOP.a(EMI.o)(MTK_MT8127_DA_platform_LOOP.a)
    0x800306a2   0x00000002   PAD
    0x800306a4   0x0000006f   Data   RO         1151    .constdata          MTK_MT8127_DA_platform_LOOP.a(platform.o)(MTK_MT8127_DA_platform_LOOP.a)
    0x80030713   0x0000000e   Data   RO         1258    .constdata          MTK_MT8127_DA_platform_LOOP.a(sal_pll.o)(MTK_MT8127_DA_platform_LOOP.a)
    0x80030721   0x00000003   PAD
    0x80030724   0x0000009b   Data   RO         1353    .constdata          MTK_MT8127_DA_platform_LOOP.a(sdmmc.o)(MTK_MT8127_DA_platform_LOOP.a)
    0x800307bf   0x00000001   PAD
    0x800307c0   0x000001b0   Data   RO         1436    .constdata          MTK_MT8127_DA_platform_LOOP.a(sdmmc_handler.o)(MTK_MT8127_DA_platform_LOOP.a)
    0x80030970   0x00000087   Data   RO         1481    .constdata          MTK_MT8127_DA_platform_LOOP.a(bmt.o)(MTK_MT8127_DA_platform_LOOP.a)
    0x800309f7   0x00000001   PAD
    0x800309f8   0x00000118   Data   RO         1541    .constdata          MTK_MT8127_DA_platform_LOOP.a(main_nand_internal.o)(MTK_MT8127_DA_platform_LOOP.a)
    0x80030b10   0x00000028   Data   RO         1908    .constdata          fw_ver_MT8127.a(get_fw_ver.o)(fw_ver_MT8127.a)
    0x80030b38   0x00000044   Data   RO         1918    .constdata          fw_ver_MT8127.a(security.o)(fw_ver_MT8127.a)
    0x80030b7c   0x0000004a   Data   RO         1922    .constdata          fw_ver_MT8127.a(sec_secro.o)(fw_ver_MT8127.a)
    0x80030bc6   0x00000002   PAD
    0x80030bc8   0x00000042   Data   RO         1950    .constdata          MTK_MT8127_DA_platform_LOOP.a(efi.o)(MTK_MT8127_DA_platform_LOOP.a)
    0x80030c0a   0x00000002   PAD
    0x80030c0c   0x000004cf   Data   RO         2010    .constdata          MTK_MT8127_DA_platform_LOOP.a(pmic_wrap_init.o)(MTK_MT8127_DA_platform_LOOP.a)
    0x800310db   0x00000001   PAD
    0x800310dc   0x00000228   Data   RO         2192    .constdata          MTK_MT8127_DA_platform_LOOP.a(mmc_core.o)(MTK_MT8127_DA_platform_LOOP.a)
    0x80031304   0x00000004   Data   RO         2498    .constdata          MTK_MT8127_DA_platform_LOOP.a(dl_usb_resource.o)(MTK_MT8127_DA_platform_LOOP.a)
    0x80031308   0x00000040   Data   RO         2560    .constdata          fw_ver_MT8127.a(msha1.o)(fw_ver_MT8127.a)
    0x80031348   0x00000020   Data   RO         2586    .constdata          fw_ver_MT8127.a(sej_hk.o)(fw_ver_MT8127.a)
    0x80031368   0x00000050   Data   RO         2587    .constdata          fw_ver_MT8127.a(sej_hk.o)(fw_ver_MT8127.a)
    0x800313b8   0x000000be   Data   RO         2602    .constdata          MTK_MT8127_DA_platform_LOOP.a(dramc_dle_cal.o)(MTK_MT8127_DA_platform_LOOP.a)
    0x80031476   0x00000002   PAD
    0x80031478   0x000000b0   Data   RO         2651    .constdata          MTK_MT8127_DA_platform_LOOP.a(dramc_dqs_gw.o)(MTK_MT8127_DA_platform_LOOP.a)
    0x80031528   0x0000005b   Data   RO         2704    .constdata          MTK_MT8127_DA_platform_LOOP.a(msdc.o)(MTK_MT8127_DA_platform_LOOP.a)
    0x80031583   0x0000001e   Data   RO         2193    .conststring        MTK_MT8127_DA_platform_LOOP.a(mmc_core.o)(MTK_MT8127_DA_platform_LOOP.a)
    0x800315a1   0x0000000a   Data   RO         2603    .conststring        MTK_MT8127_DA_platform_LOOP.a(dramc_dle_cal.o)(MTK_MT8127_DA_platform_LOOP.a)
    0x800315ab   0x00000091   Data   RO         2652    .conststring        MTK_MT8127_DA_platform_LOOP.a(dramc_dqs_gw.o)(MTK_MT8127_DA_platform_LOOP.a)
    0x8003163c   0x00000004   PAD
    0x80031640   0x00002f40   Data   RO          235    NAND_FLASH_TABLE    nand_dev_tbl.o
    0x80034580   0x00000010   Data   RO         3065    locale$$data        c_2.l(null_locale.o)(c_2.l)
    0x80034590   0x00000134   Data   RW           23    .data               nand_drv_COMMON_v3_1.o
    0x800346c4   0x00000004   Data   RW           25    .data               nand_drv_COMMON_v3_1.o
    0x800346c8   0x000004bc   Data   RW          221    .data               nand_dev_tbl.o
    0x80034b84   0x000004bc   Data   RW          222    .data               nand_dev_tbl.o
    0x80035040   0x000004bc   Data   RW          223    .data               nand_dev_tbl.o
    0x800354fc   0x000004bc   Data   RW          224    .data               nand_dev_tbl.o
    0x800359b8   0x000004bc   Data   RW          225    .data               nand_dev_tbl.o
    0x80035e74   0x000004bc   Data   RW          226    .data               nand_dev_tbl.o
    0x80036330   0x000004bc   Data   RW          227    .data               nand_dev_tbl.o
    0x800367ec   0x000004bc   Data   RW          228    .data               nand_dev_tbl.o
    0x80036ca8   0x00000028   Data   RW          232    .data               nand_dev_tbl.o
    0x80036cd0   0x00000028   Data   RW          233    .data               nand_dev_tbl.o
    0x80036cf8   0x0000000c   Data   RW          427    .data               MTK_MT8127_DA_platform_LOOP.a(hw_config.o)(MTK_MT8127_DA_platform_LOOP.a)
    0x80036d04   0x00000004   Data   RW          428    .data               MTK_MT8127_DA_platform_LOOP.a(hw_config.o)(MTK_MT8127_DA_platform_LOOP.a)
    0x80036d08   0x00000004   Data   RW          429    .data               MTK_MT8127_DA_platform_LOOP.a(hw_config.o)(MTK_MT8127_DA_platform_LOOP.a)
    0x80036d0c   0x00000004   Data   RW          430    .data               MTK_MT8127_DA_platform_LOOP.a(hw_config.o)(MTK_MT8127_DA_platform_LOOP.a)
    0x80036d10   0x00000004   Data   RW          431    .data               MTK_MT8127_DA_platform_LOOP.a(hw_config.o)(MTK_MT8127_DA_platform_LOOP.a)
    0x80036d14   0x00000004   Data   RW          432    .data               MTK_MT8127_DA_platform_LOOP.a(hw_config.o)(MTK_MT8127_DA_platform_LOOP.a)
    0x80036d18   0x00000004   Data   RW          434    .data               MTK_MT8127_DA_platform_LOOP.a(hw_config.o)(MTK_MT8127_DA_platform_LOOP.a)
    0x80036d1c   0x00000008   Data   RW          510    .data               MTK_MT8127_DA_platform_LOOP.a(logging.o)(MTK_MT8127_DA_platform_LOOP.a)
    0x80036d24   0x00000008   Data   RW          540    .data               MTK_MT8127_DA_platform_LOOP.a(xgpt.o)(MTK_MT8127_DA_platform_LOOP.a)
    0x80036d2c   0x00000004   PAD
    0x80036d30   0x00000790   Data   RW          583    .data               MTK_MT8127_DA_platform_LOOP.a(main_nand.o)(MTK_MT8127_DA_platform_LOOP.a)
    0x800374c0   0x00000008   Data   RW          705    .data               MTK_MT8127_DA_platform_LOOP.a(nand_util_func.o)(MTK_MT8127_DA_platform_LOOP.a)
    0x800374c8   0x00000030   Data   RW          811    .data               MTK_MT8127_DA_platform_LOOP.a(BLOADER.o)(MTK_MT8127_DA_platform_LOOP.a)
    0x800374f8   0x00000002   Data   RW          813    .data               MTK_MT8127_DA_platform_LOOP.a(BLOADER.o)(MTK_MT8127_DA_platform_LOOP.a)
    0x800374fa   0x00000002   PAD
    0x800374fc   0x00000300   Data   RW          918    .data               MTK_MT8127_DA_platform_LOOP.a(EMI.o)(MTK_MT8127_DA_platform_LOOP.a)
    0x800377fc   0x00000020   Data   RW         1153    .data               MTK_MT8127_DA_platform_LOOP.a(platform.o)(MTK_MT8127_DA_platform_LOOP.a)
    0x8003781c   0x00000004   Data   RW         1221    .data               MTK_MT8127_DA_platform_LOOP.a(rx_buffer.o)(MTK_MT8127_DA_platform_LOOP.a)
    0x80037820   0x00000004   Data   RW         1222    .data               MTK_MT8127_DA_platform_LOOP.a(rx_buffer.o)(MTK_MT8127_DA_platform_LOOP.a)
    0x80037824   0x00000001   Data   RW         1259    .data               MTK_MT8127_DA_platform_LOOP.a(sal_pll.o)(MTK_MT8127_DA_platform_LOOP.a)
    0x80037825   0x00000003   PAD
    0x80037828   0x00000004   Data   RW         1307    .data               MTK_MT8127_DA_platform_LOOP.a(blkdev.o)(MTK_MT8127_DA_platform_LOOP.a)
    0x8003782c   0x00000004   PAD
    0x80037830   0x00000028   Data   RW         1354    .data               MTK_MT8127_DA_platform_LOOP.a(sdmmc.o)(MTK_MT8127_DA_platform_LOOP.a)
    0x80037858   0x00000038   Data   RW         1437    .data               MTK_MT8127_DA_platform_LOOP.a(sdmmc_handler.o)(MTK_MT8127_DA_platform_LOOP.a)
    0x80037890   0x000002bc   Data   RW         1482    .data               MTK_MT8127_DA_platform_LOOP.a(bmt.o)(MTK_MT8127_DA_platform_LOOP.a)
    0x80037b4c   0x00000004   Data   RW         1651    .data               MTK_MT8127_DA_platform_LOOP.a(dl_usb.o)(MTK_MT8127_DA_platform_LOOP.a)
    0x80037b50   0x00000008   Data   RW         1723    .data               MTK_MT8127_DA_platform_LOOP.a(dl_usb_drv.o)(MTK_MT8127_DA_platform_LOOP.a)
    0x80037b58   0x00000008   Data   RW         1833    .data               MTK_MT8127_DA_platform_LOOP.a(dl_usbacm_adap.o)(MTK_MT8127_DA_platform_LOOP.a)
    0x80037b60   0x0000004c   Data   RW         1883    .data               MTK_MT8127_DA_platform_LOOP.a(UART.o)(MTK_MT8127_DA_platform_LOOP.a)
    0x80037bac   0x00000020   Data   RW         1912    .data               fw_ver_MT8127.a(sb_encode.o)(fw_ver_MT8127.a)
    0x80037bcc   0x00000001   Data   RW         1919    .data               fw_ver_MT8127.a(security.o)(fw_ver_MT8127.a)
    0x80037bcd   0x00000001   Data   RW         1923    .data               fw_ver_MT8127.a(sec_secro.o)(fw_ver_MT8127.a)
    0x80037bce   0x00000002   PAD
    0x80037bd0   0x00000060   Data   RW         1930    .data               MTK_MT8127_DA_platform_LOOP.a(dramc_calib.o)(MTK_MT8127_DA_platform_LOOP.a)
    0x80037c30   0x000002b0   Data   RW         1951    .data               MTK_MT8127_DA_platform_LOOP.a(efi.o)(MTK_MT8127_DA_platform_LOOP.a)
    0x80037ee0   0x0000000c   Data   RW         2059    .data               MTK_MT8127_DA_platform_LOOP.a(rtc.o)(MTK_MT8127_DA_platform_LOOP.a)
    0x80037eec   0x00000014   Data   RW         2375    .data               MTK_MT8127_DA_platform_LOOP.a(nand_download_internal.o)(MTK_MT8127_DA_platform_LOOP.a)
    0x80037f00   0x0000000c   Data   RW         2499    .data               MTK_MT8127_DA_platform_LOOP.a(dl_usb_resource.o)(MTK_MT8127_DA_platform_LOOP.a)
    0x80037f0c   0x00000003   Data   RW         2524    .data               MTK_MT8127_DA_platform_LOOP.a(dl_usbacm_drv.o)(MTK_MT8127_DA_platform_LOOP.a)
    0x80037f0f   0x00000001   Data   RW         2525    .data               MTK_MT8127_DA_platform_LOOP.a(dl_usbacm_drv.o)(MTK_MT8127_DA_platform_LOOP.a)
    0x80037f10   0x00000040   Data   RW         2556    .data               fw_ver_MT8127.a(md5.o)(fw_ver_MT8127.a)
    0x80037f50   0x00000001   Data   RW         2563    .data               fw_ver_MT8127.a(sec_dl.o)(fw_ver_MT8127.a)
    0x80037f51   0x00000001   Data   RW         2570    .data               fw_ver_MT8127.a(seccfg_ver.o)(fw_ver_MT8127.a)
    0x80037f52   0x00000001   Data   RW         2576    .data               fw_ver_MT8127.a(sec_dev.o)(fw_ver_MT8127.a)
    0x80037f53   0x00000001   Data   RW         2583    .data               fw_ver_MT8127.a(sec_hdr.o)(fw_ver_MT8127.a)
    0x80037f54   0x00000058   Data   RW         2606    .data               MTK_MT8127_DA_platform_LOOP.a(dramc_dle_cal.o)(MTK_MT8127_DA_platform_LOOP.a)
    0x80037fac   0x000000e4   Data   RW         2653    .data               MTK_MT8127_DA_platform_LOOP.a(dramc_dqs_gw.o)(MTK_MT8127_DA_platform_LOOP.a)
    0x80038090   0x00000004   Data   RW         2655    .data               MTK_MT8127_DA_platform_LOOP.a(dramc_dqs_gw.o)(MTK_MT8127_DA_platform_LOOP.a)
    0x80038094   0x00000004   Data   RW         2656    .data               MTK_MT8127_DA_platform_LOOP.a(dramc_dqs_gw.o)(MTK_MT8127_DA_platform_LOOP.a)
    0x80038098   0x00000004   Data   RW         2657    .data               MTK_MT8127_DA_platform_LOOP.a(dramc_dqs_gw.o)(MTK_MT8127_DA_platform_LOOP.a)
    0x8003809c   0x00000024   Data   RW         2705    .data               MTK_MT8127_DA_platform_LOOP.a(msdc.o)(MTK_MT8127_DA_platform_LOOP.a)
    0x800380c0   0x00000014   Data   RW         2852    .data               MTK_MT8127_DA_platform_LOOP.a(msdc_cust.o)(MTK_MT8127_DA_platform_LOOP.a)
    0x800380d4   0x00000004   Data   RW         2865    .data               fw_ver_MT8127.a(ext_region.o)(fw_ver_MT8127.a)


    Execution Region EXT_RAM_ZI (Base: 0x800380d8, Size: 0x00055e88, Max: 0xffffffff, ABSOLUTE)

    Base Addr    Size         Type   Attr      Idx    E Section Name        Object

    0x800380d8   0x00000654   Zero   RW           17    .bss                nand_drv_COMMON_v3_1.o
    0x8003872c   0x00000004   PAD
    0x80038730   0x00000288   Zero   RW          421    .bss                MTK_MT8127_DA_platform_LOOP.a(hw_config.o)(MTK_MT8127_DA_platform_LOOP.a)
    0x800389b8   0x00006150   Zero   RW          578    .bss                MTK_MT8127_DA_platform_LOOP.a(main_nand.o)(MTK_MT8127_DA_platform_LOOP.a)
    0x8003eb08   0x000090a0   Zero   RW          702    .bss                MTK_MT8127_DA_platform_LOOP.a(nand_util_func.o)(MTK_MT8127_DA_platform_LOOP.a)
    0x80047ba8   0x00000184   Zero   RW          808    .bss                MTK_MT8127_DA_platform_LOOP.a(BLOADER.o)(MTK_MT8127_DA_platform_LOOP.a)
    0x80047d2c   0x00000004   PAD
    0x80047d30   0x00000060   Zero   RW          809    .bss                MTK_MT8127_DA_platform_LOOP.a(BLOADER.o)(MTK_MT8127_DA_platform_LOOP.a)
    0x80047d90   0x0000042c   Zero   RW         1351    .bss                MTK_MT8127_DA_platform_LOOP.a(sdmmc.o)(MTK_MT8127_DA_platform_LOOP.a)
    0x800481bc   0x00000004   PAD
    0x800481c0   0x000006c8   Zero   RW         1435    .bss                MTK_MT8127_DA_platform_LOOP.a(sdmmc_handler.o)(MTK_MT8127_DA_platform_LOOP.a)
    0x80048888   0x00024860   Zero   RW         1480    .bss                MTK_MT8127_DA_platform_LOOP.a(bmt.o)(MTK_MT8127_DA_platform_LOOP.a)
    0x8006d0e8   0x00004800   Zero   RW         1631    .bss                MTK_MT8127_DA_platform_LOOP.a(test_main.o)(MTK_MT8127_DA_platform_LOOP.a)
    0x800718e8   0x00000460   Zero   RW         1650    .bss                MTK_MT8127_DA_platform_LOOP.a(dl_usb.o)(MTK_MT8127_DA_platform_LOOP.a)
    0x80071d48   0x00000098   Zero   RW         1718    .bss                MTK_MT8127_DA_platform_LOOP.a(dl_usb_drv.o)(MTK_MT8127_DA_platform_LOOP.a)
    0x80071de0   0x00000410   Zero   RW         1832    .bss                MTK_MT8127_DA_platform_LOOP.a(dl_usbacm_adap.o)(MTK_MT8127_DA_platform_LOOP.a)
    0x800721f0   0x000000e0   Zero   RW         1882    .bss                MTK_MT8127_DA_platform_LOOP.a(UART.o)(MTK_MT8127_DA_platform_LOOP.a)
    0x800722d0   0x0000abc4   Zero   RW         1916    .bss                fw_ver_MT8127.a(security.o)(fw_ver_MT8127.a)
    0x8007ce94   0x00001010   Zero   RW         1917    .bss                fw_ver_MT8127.a(security.o)(fw_ver_MT8127.a)
    0x8007dea4   0x00000010   Zero   RW         1929    .bss                MTK_MT8127_DA_platform_LOOP.a(dramc_calib.o)(MTK_MT8127_DA_platform_LOOP.a)
    0x8007deb4   0x00004800   Zero   RW         1949    .bss                MTK_MT8127_DA_platform_LOOP.a(efi.o)(MTK_MT8127_DA_platform_LOOP.a)
    0x800826b4   0x00000d50   Zero   RW         2191    .bss                MTK_MT8127_DA_platform_LOOP.a(mmc_core.o)(MTK_MT8127_DA_platform_LOOP.a)
    0x80083404   0x00000200   Zero   RW         2320    .bss                MTK_MT8127_DA_platform_LOOP.a(sdmmc_download_internal.o)(MTK_MT8127_DA_platform_LOOP.a)
    0x80083604   0x00000130   Zero   RW         2497    .bss                MTK_MT8127_DA_platform_LOOP.a(dl_usb_resource.o)(MTK_MT8127_DA_platform_LOOP.a)
    0x80083734   0x00000030   Zero   RW         2523    .bss                MTK_MT8127_DA_platform_LOOP.a(dl_usbacm_drv.o)(MTK_MT8127_DA_platform_LOOP.a)
    0x80083764   0x00008000   Zero   RW         2575    .bss                fw_ver_MT8127.a(sec_dev.o)(fw_ver_MT8127.a)
    0x8008b764   0x0000006c   Zero   RW         2592    .bss                fw_ver_MT8127_s.a(sha1_sw.o)(fw_ver_MT8127_s.a)
    0x8008b7d0   0x00000040   Zero   RW         2601    .bss                MTK_MT8127_DA_platform_LOOP.a(dramc_dle_cal.o)(MTK_MT8127_DA_platform_LOOP.a)
    0x8008b810   0x00000098   Zero   RW         2650    .bss                MTK_MT8127_DA_platform_LOOP.a(dramc_dqs_gw.o)(MTK_MT8127_DA_platform_LOOP.a)
    0x8008b8a8   0x00000820   Zero   RW         2703    .bss                MTK_MT8127_DA_platform_LOOP.a(msdc.o)(MTK_MT8127_DA_platform_LOOP.a)
    0x8008c0c8   0x00000054   Zero   RW         2849    .bss                fw_ver_MT8127.a(sej_sk.o)(fw_ver_MT8127.a)
    0x8008c11c   0x0000002a   Zero   RW         2934    .bss                c_2.l(locale.o)(c_2.l)
    0x8008c146   0x00000002   PAD
    0x8008c148   0x00000004   Zero   RW         3013    .bss                c_2.l(rt_heap_descriptor.o)(c_2.l)
    0x8008c14c   0x00000014   Zero   RW         3049    .bss                c_2.l(rt_locale.o)(c_2.l)
    0x8008c160   0x00001e00   Zero   RW          587    CUSTOMER_ZIDATA     MTK_MT8127_DA_platform_LOOP.a(main_nand.o)(MTK_MT8127_DA_platform_LOOP.a)


    Execution Region INT_SYSRAM (Base: 0x8008df60, Size: 0x00000000, Max: 0xffffffff, ABSOLUTE)

    Base Addr    Size         Type   Attr      Idx    E Section Name        Object

    0x8008df60   0x00000000   Data   RO         3188    linker$$defined$$symbols  anon$$obj.o


    Execution Region INT_SYSRAM_ZI (Base: 0x8008df60, Size: 0x00000000, Max: 0xffffffff, ABSOLUTE)

    **** No section assigned to this execution region ****



  Load Region LR$$.ARM.__AT_0x80100000 (Base: 0x80100000, Size: 0x00000000, Max: 0x00000004, ABSOLUTE)

    Execution Region ER$$.ARM.__AT_0x80100000 (Base: 0x80100000, Size: 0x00000004, Max: 0x00000004, ABSOLUTE, UNINIT)

    Base Addr    Size         Type   Attr      Idx    E Section Name        Object

    0x80100000   0x00000004   Zero   RW          280    .ARM.__AT_0x80100000  MTK_MT8127_DA_platform_LOOP.a(da_init.o)(MTK_MT8127_DA_platform_LOOP.a)

